GAS LISTING /tmp/cc8yofls.s 			page 1


   1              		.file	"MySem.cpp"
   2              		.option pic
   3              		.option norelax
   4              		.text
   5              	.Ltext0:
   6              		.align	2
   7              		.globl	_ZN5MySem7semOpenEPPS_m
   9              	_ZN5MySem7semOpenEPPS_m:
  10              	.LFB8:
  11              		.file 1 "src/MySem.cpp"
   1:src/MySem.cpp **** 
   2:src/MySem.cpp **** #include "../h/MySem.hpp"
   3:src/MySem.cpp **** #include "../h/MemoryAllocator.hpp"
   4:src/MySem.cpp **** #include "../h/Scheduler.hpp"
   5:src/MySem.cpp **** #include "../h/syscall_c.h"
   6:src/MySem.cpp **** 
   7:src/MySem.cpp **** void MySem::semOpen(MySem **handle, uint64 k) {
  12              		.loc 1 7 47
  13              		.cfi_startproc
  14              	.LVL0:
  15 0000 130101FE 		addi	sp,sp,-32
  16              		.cfi_def_cfa_offset 32
  17 0004 233C1100 		sd	ra,24(sp)
  18 0008 23388100 		sd	s0,16(sp)
  19 000c 23349100 		sd	s1,8(sp)
  20 0010 23302101 		sd	s2,0(sp)
  21              		.cfi_offset 1, -8
  22              		.cfi_offset 8, -16
  23              		.cfi_offset 9, -24
  24              		.cfi_offset 18, -32
  25 0014 13040102 		addi	s0,sp,32
  26              		.cfi_def_cfa 8, 0
  27 0018 93040500 		mv	s1,a0
  28 001c 13890500 		mv	s2,a1
   8:src/MySem.cpp **** 
   9:src/MySem.cpp ****     MySem* sem = (MySem*)MemoryAllocator::getInstance()._mem_alloc(sizeof(MySem)/MEM_BLOCK_SIZE + (
  29              		.loc 1 9 5
  30              		.loc 1 9 55 is_stmt 0
  31 0020 97000000 		call	_ZN15MemoryAllocator11getInstanceEv@plt
  31      E7800000 
  32              	.LVL1:
  33              		.loc 1 9 67
  34 0028 93051000 		li	a1,1
  35 002c 97000000 		call	_ZN15MemoryAllocator10_mem_allocEm@plt
  35      E7800000 
  36              	.LVL2:
  10:src/MySem.cpp ****     sem->n = k;
  37              		.loc 1 10 5 is_stmt 1
  38              		.loc 1 10 12 is_stmt 0
  39 0034 23282501 		sw	s2,16(a0)
  11:src/MySem.cpp ****     sem->tail = nullptr;
  40              		.loc 1 11 5 is_stmt 1
  41              		.loc 1 11 15 is_stmt 0
  42 0038 23340500 		sd	zero,8(a0)
  12:src/MySem.cpp ****     sem->head = nullptr;
  43              		.loc 1 12 5 is_stmt 1
  44              		.loc 1 12 15 is_stmt 0
GAS LISTING /tmp/cc8yofls.s 			page 2


  45 003c 23300500 		sd	zero,0(a0)
  13:src/MySem.cpp ****     *handle = sem;
  46              		.loc 1 13 5 is_stmt 1
  47              		.loc 1 13 13 is_stmt 0
  48 0040 23B0A400 		sd	a0,0(s1)
  14:src/MySem.cpp **** }
  49              		.loc 1 14 1
  50 0044 83308101 		ld	ra,24(sp)
  51              		.cfi_restore 1
  52 0048 03340101 		ld	s0,16(sp)
  53              		.cfi_restore 8
  54              		.cfi_def_cfa 2, 32
  55 004c 83348100 		ld	s1,8(sp)
  56              		.cfi_restore 9
  57              	.LVL3:
  58 0050 03390100 		ld	s2,0(sp)
  59              		.cfi_restore 18
  60              	.LVL4:
  61 0054 13010102 		addi	sp,sp,32
  62              		.cfi_def_cfa_offset 0
  63 0058 67800000 		jr	ra
  64              		.cfi_endproc
  65              	.LFE8:
  67              		.align	2
  68              		.globl	_ZN5MySem9semCreateEm
  70              	_ZN5MySem9semCreateEm:
  71              	.LFB9:
  15:src/MySem.cpp **** 
  16:src/MySem.cpp **** MySem* MySem::semCreate(uint64 k) {
  72              		.loc 1 16 35 is_stmt 1
  73              		.cfi_startproc
  74              	.LVL5:
  75 005c 130101FE 		addi	sp,sp,-32
  76              		.cfi_def_cfa_offset 32
  77 0060 233C1100 		sd	ra,24(sp)
  78 0064 23388100 		sd	s0,16(sp)
  79 0068 23349100 		sd	s1,8(sp)
  80              		.cfi_offset 1, -8
  81              		.cfi_offset 8, -16
  82              		.cfi_offset 9, -24
  83 006c 13040102 		addi	s0,sp,32
  84              		.cfi_def_cfa 8, 0
  85 0070 93040500 		mv	s1,a0
  17:src/MySem.cpp **** 
  18:src/MySem.cpp ****     MySem* sem = (MySem*)MemoryAllocator::getInstance()._mem_alloc(sizeof(MySem)/MEM_BLOCK_SIZE + (
  86              		.loc 1 18 5
  87              		.loc 1 18 55 is_stmt 0
  88 0074 97000000 		call	_ZN15MemoryAllocator11getInstanceEv@plt
  88      E7800000 
  89              	.LVL6:
  90              		.loc 1 18 67
  91 007c 93051000 		li	a1,1
  92 0080 97000000 		call	_ZN15MemoryAllocator10_mem_allocEm@plt
  92      E7800000 
  93              	.LVL7:
  19:src/MySem.cpp ****     sem->n = k;
  94              		.loc 1 19 5 is_stmt 1
GAS LISTING /tmp/cc8yofls.s 			page 3


  95              		.loc 1 19 12 is_stmt 0
  96 0088 23289500 		sw	s1,16(a0)
  20:src/MySem.cpp ****     sem->tail = nullptr;
  97              		.loc 1 20 5 is_stmt 1
  98              		.loc 1 20 15 is_stmt 0
  99 008c 23340500 		sd	zero,8(a0)
  21:src/MySem.cpp ****     sem->head = nullptr;
 100              		.loc 1 21 5 is_stmt 1
 101              		.loc 1 21 15 is_stmt 0
 102 0090 23300500 		sd	zero,0(a0)
  22:src/MySem.cpp ****     return sem;
 103              		.loc 1 22 5 is_stmt 1
  23:src/MySem.cpp **** }
 104              		.loc 1 23 1 is_stmt 0
 105 0094 83308101 		ld	ra,24(sp)
 106              		.cfi_restore 1
 107 0098 03340101 		ld	s0,16(sp)
 108              		.cfi_restore 8
 109              		.cfi_def_cfa 2, 32
 110 009c 83348100 		ld	s1,8(sp)
 111              		.cfi_restore 9
 112              	.LVL8:
 113 00a0 13010102 		addi	sp,sp,32
 114              		.cfi_def_cfa_offset 0
 115 00a4 67800000 		jr	ra
 116              		.cfi_endproc
 117              	.LFE9:
 119              		.align	2
 120              		.globl	_ZN5MySem9getThreadEv
 122              	_ZN5MySem9getThreadEv:
 123              	.LFB13:
  24:src/MySem.cpp **** 
  25:src/MySem.cpp **** 
  26:src/MySem.cpp **** 
  27:src/MySem.cpp **** int MySem::semClose(MySem* handle) {
  28:src/MySem.cpp ****     if(handle == nullptr){
  29:src/MySem.cpp ****         return -1;
  30:src/MySem.cpp ****     }
  31:src/MySem.cpp ****     //1.nit koja ceka
  32:src/MySem.cpp ****     TCB* pom = handle->getThread();
  33:src/MySem.cpp ****     while(pom!= nullptr){
  34:src/MySem.cpp ****         pom->closed = true;
  35:src/MySem.cpp ****         pom->blocked = false;
  36:src/MySem.cpp ****         Scheduler::put(pom);
  37:src/MySem.cpp ****         //uzima slededecu nit koja ceka na tom semaforu
  38:src/MySem.cpp ****         pom = handle->getThread();
  39:src/MySem.cpp ****     }
  40:src/MySem.cpp **** 
  41:src/MySem.cpp ****     //brise semafor
  42:src/MySem.cpp ****     int rez = MemoryAllocator::getInstance()._mem_free(handle);
  43:src/MySem.cpp ****     return rez;
  44:src/MySem.cpp **** }
  45:src/MySem.cpp **** 
  46:src/MySem.cpp **** int MySem::semWait(MySem* handle) {
  47:src/MySem.cpp ****     if(handle == nullptr){
  48:src/MySem.cpp ****         return -1;
  49:src/MySem.cpp ****     }
GAS LISTING /tmp/cc8yofls.s 			page 4


  50:src/MySem.cpp ****     if(--handle->n< 0){
  51:src/MySem.cpp ****         if(TCB::running->closed) return -1;
  52:src/MySem.cpp ****         TCB::running->blocked = true;
  53:src/MySem.cpp ****         handle->putThread(TCB::running);
  54:src/MySem.cpp ****         TCB::dispatch();
  55:src/MySem.cpp ****     }
  56:src/MySem.cpp ****     return 0;
  57:src/MySem.cpp **** }
  58:src/MySem.cpp **** 
  59:src/MySem.cpp **** int MySem::semSignal(MySem* handle) {
  60:src/MySem.cpp ****     if(handle == nullptr){
  61:src/MySem.cpp ****         return -1;
  62:src/MySem.cpp ****     }
  63:src/MySem.cpp ****     handle->n++;
  64:src/MySem.cpp ****     if(handle->n <= 0){
  65:src/MySem.cpp ****         TCB* t = handle->getThread();
  66:src/MySem.cpp ****         t->blocked = false;
  67:src/MySem.cpp ****         if(t != nullptr) {
  68:src/MySem.cpp ****             Scheduler::put(t);
  69:src/MySem.cpp ****         }
  70:src/MySem.cpp ****     }
  71:src/MySem.cpp **** 
  72:src/MySem.cpp ****     return 0;
  73:src/MySem.cpp **** 
  74:src/MySem.cpp **** }
  75:src/MySem.cpp **** 
  76:src/MySem.cpp **** TCB *MySem::getThread() {
 124              		.loc 1 76 25 is_stmt 1
 125              		.cfi_startproc
 126              	.LVL9:
 127 00a8 130101FE 		addi	sp,sp,-32
 128              		.cfi_def_cfa_offset 32
 129 00ac 233C1100 		sd	ra,24(sp)
 130 00b0 23388100 		sd	s0,16(sp)
 131 00b4 23349100 		sd	s1,8(sp)
 132 00b8 23302101 		sd	s2,0(sp)
 133              		.cfi_offset 1, -8
 134              		.cfi_offset 8, -16
 135              		.cfi_offset 9, -24
 136              		.cfi_offset 18, -32
 137 00bc 13040102 		addi	s0,sp,32
 138              		.cfi_def_cfa 8, 0
  77:src/MySem.cpp **** 
  78:src/MySem.cpp ****     Blocked* getB = head;
 139              		.loc 1 78 5
 140              		.loc 1 78 14 is_stmt 0
 141 00c0 83340500 		ld	s1,0(a0)
 142              	.LVL10:
  79:src/MySem.cpp ****     if(getB == nullptr)return nullptr;
 143              		.loc 1 79 5 is_stmt 1
 144 00c4 63860404 		beqz	s1,.L8
  80:src/MySem.cpp ****     TCB* t = getB->blocked;
 145              		.loc 1 80 5
 146              		.loc 1 80 10 is_stmt 0
 147 00c8 03B90400 		ld	s2,0(s1)
 148              	.LVL11:
  81:src/MySem.cpp ****     head = head->next;
GAS LISTING /tmp/cc8yofls.s 			page 5


 149              		.loc 1 81 5 is_stmt 1
 150              		.loc 1 81 18 is_stmt 0
 151 00cc 83B78400 		ld	a5,8(s1)
 152              		.loc 1 81 10
 153 00d0 2330F500 		sd	a5,0(a0)
  82:src/MySem.cpp ****     if(head == nullptr){
 154              		.loc 1 82 5 is_stmt 1
 155 00d4 638A0702 		beqz	a5,.L10
 156              	.L7:
  83:src/MySem.cpp ****         tail = nullptr;
  84:src/MySem.cpp ****     }
  85:src/MySem.cpp ****     MemoryAllocator::getInstance()._mem_free(getB);
 157              		.loc 1 85 5
 158              		.loc 1 85 34 is_stmt 0
 159 00d8 97000000 		call	_ZN15MemoryAllocator11getInstanceEv@plt
 159      E7800000 
 160              	.LVL12:
 161              		.loc 1 85 45
 162 00e0 93850400 		mv	a1,s1
 163 00e4 97000000 		call	_ZN15MemoryAllocator9_mem_freeEPv@plt
 163      E7800000 
 164              	.LVL13:
  86:src/MySem.cpp ****     return t;
 165              		.loc 1 86 5 is_stmt 1
 166              	.L5:
  87:src/MySem.cpp **** }
 167              		.loc 1 87 1 is_stmt 0
 168 00ec 13050900 		mv	a0,s2
 169 00f0 83308101 		ld	ra,24(sp)
 170              		.cfi_remember_state
 171              		.cfi_restore 1
 172 00f4 03340101 		ld	s0,16(sp)
 173              		.cfi_restore 8
 174              		.cfi_def_cfa 2, 32
 175 00f8 83348100 		ld	s1,8(sp)
 176              		.cfi_restore 9
 177              	.LVL14:
 178 00fc 03390100 		ld	s2,0(sp)
 179              		.cfi_restore 18
 180 0100 13010102 		addi	sp,sp,32
 181              		.cfi_def_cfa_offset 0
 182 0104 67800000 		jr	ra
 183              	.LVL15:
 184              	.L10:
 185              		.cfi_restore_state
  83:src/MySem.cpp ****         tail = nullptr;
 186              		.loc 1 83 9 is_stmt 1
  83:src/MySem.cpp ****         tail = nullptr;
 187              		.loc 1 83 14 is_stmt 0
 188 0108 23340500 		sd	zero,8(a0)
 189 010c 6FF0DFFC 		j	.L7
 190              	.LVL16:
 191              	.L8:
  79:src/MySem.cpp ****     TCB* t = getB->blocked;
 192              		.loc 1 79 31
 193 0110 13890400 		mv	s2,s1
 194 0114 6FF09FFD 		j	.L5
GAS LISTING /tmp/cc8yofls.s 			page 6


 195              		.cfi_endproc
 196              	.LFE13:
 198              		.align	2
 199              		.globl	_ZN5MySem8semCloseEPS_
 201              	_ZN5MySem8semCloseEPS_:
 202              	.LFB10:
  27:src/MySem.cpp ****     if(handle == nullptr){
 203              		.loc 1 27 36 is_stmt 1
 204              		.cfi_startproc
 205              	.LVL17:
  28:src/MySem.cpp ****         return -1;
 206              		.loc 1 28 5
 207 0118 630A0506 		beqz	a0,.L15
  27:src/MySem.cpp ****     if(handle == nullptr){
 208              		.loc 1 27 36 is_stmt 0
 209 011c 130101FE 		addi	sp,sp,-32
 210              		.cfi_def_cfa_offset 32
 211 0120 233C1100 		sd	ra,24(sp)
 212 0124 23388100 		sd	s0,16(sp)
 213 0128 23349100 		sd	s1,8(sp)
 214              		.cfi_offset 1, -8
 215              		.cfi_offset 8, -16
 216              		.cfi_offset 9, -24
 217 012c 13040102 		addi	s0,sp,32
 218              		.cfi_def_cfa 8, 0
 219 0130 93040500 		mv	s1,a0
  32:src/MySem.cpp ****     while(pom!= nullptr){
 220              		.loc 1 32 5 is_stmt 1
  32:src/MySem.cpp ****     while(pom!= nullptr){
 221              		.loc 1 32 33 is_stmt 0
 222 0134 97000000 		call	_ZN5MySem9getThreadEv
 222      E7800000 
 223              	.LVL18:
 224              	.L14:
  33:src/MySem.cpp ****         pom->closed = true;
 225              		.loc 1 33 5 is_stmt 1
  33:src/MySem.cpp ****         pom->closed = true;
 226              		.loc 1 33 14
 227 013c 63040502 		beqz	a0,.L13
  34:src/MySem.cpp ****         pom->blocked = false;
 228              		.loc 1 34 9
  34:src/MySem.cpp ****         pom->blocked = false;
 229              		.loc 1 34 21 is_stmt 0
 230 0140 93071000 		li	a5,1
 231 0144 A300F502 		sb	a5,33(a0)
  35:src/MySem.cpp ****         Scheduler::put(pom);
 232              		.loc 1 35 9 is_stmt 1
  35:src/MySem.cpp ****         Scheduler::put(pom);
 233              		.loc 1 35 22 is_stmt 0
 234 0148 23010502 		sb	zero,34(a0)
  36:src/MySem.cpp ****         //uzima slededecu nit koja ceka na tom semaforu
 235              		.loc 1 36 9 is_stmt 1
  36:src/MySem.cpp ****         //uzima slededecu nit koja ceka na tom semaforu
 236              		.loc 1 36 23 is_stmt 0
 237 014c 97000000 		call	_ZN9Scheduler3putEP3TCB@plt
 237      E7800000 
 238              	.LVL19:
GAS LISTING /tmp/cc8yofls.s 			page 7


  38:src/MySem.cpp ****     }
 239              		.loc 1 38 9 is_stmt 1
  38:src/MySem.cpp ****     }
 240              		.loc 1 38 32 is_stmt 0
 241 0154 13850400 		mv	a0,s1
 242 0158 97000000 		call	_ZN5MySem9getThreadEv
 242      E7800000 
 243              	.LVL20:
  33:src/MySem.cpp ****         pom->closed = true;
 244              		.loc 1 33 5
 245 0160 6FF0DFFD 		j	.L14
 246              	.L13:
  42:src/MySem.cpp ****     return rez;
 247              		.loc 1 42 5 is_stmt 1
  42:src/MySem.cpp ****     return rez;
 248              		.loc 1 42 44 is_stmt 0
 249 0164 97000000 		call	_ZN15MemoryAllocator11getInstanceEv@plt
 249      E7800000 
 250              	.LVL21:
  42:src/MySem.cpp ****     return rez;
 251              		.loc 1 42 55
 252 016c 93850400 		mv	a1,s1
 253 0170 97000000 		call	_ZN15MemoryAllocator9_mem_freeEPv@plt
 253      E7800000 
 254              	.LVL22:
  43:src/MySem.cpp **** }
 255              		.loc 1 43 5 is_stmt 1
  44:src/MySem.cpp **** 
 256              		.loc 1 44 1 is_stmt 0
 257 0178 83308101 		ld	ra,24(sp)
 258              		.cfi_restore 1
 259 017c 03340101 		ld	s0,16(sp)
 260              		.cfi_restore 8
 261              		.cfi_def_cfa 2, 32
 262 0180 83348100 		ld	s1,8(sp)
 263              		.cfi_restore 9
 264              	.LVL23:
 265 0184 13010102 		addi	sp,sp,32
 266              		.cfi_def_cfa_offset 0
 267 0188 67800000 		jr	ra
 268              	.LVL24:
 269              	.L15:
  29:src/MySem.cpp ****     }
 270              		.loc 1 29 17
 271 018c 1305F0FF 		li	a0,-1
 272              	.LVL25:
  44:src/MySem.cpp **** 
 273              		.loc 1 44 1
 274 0190 67800000 		ret
 275              		.cfi_endproc
 276              	.LFE10:
 278              		.align	2
 279              		.globl	_ZN5MySem9semSignalEPS_
 281              	_ZN5MySem9semSignalEPS_:
 282              	.LFB12:
  59:src/MySem.cpp ****     if(handle == nullptr){
 283              		.loc 1 59 37 is_stmt 1
GAS LISTING /tmp/cc8yofls.s 			page 8


 284              		.cfi_startproc
 285              	.LVL26:
  60:src/MySem.cpp ****         return -1;
 286              		.loc 1 60 5
 287 0194 630E0504 		beqz	a0,.L22
  63:src/MySem.cpp ****     if(handle->n <= 0){
 288              		.loc 1 63 5
  63:src/MySem.cpp ****     if(handle->n <= 0){
 289              		.loc 1 63 13 is_stmt 0
 290 0198 83270501 		lw	a5,16(a0)
  63:src/MySem.cpp ****     if(handle->n <= 0){
 291              		.loc 1 63 14
 292 019c 9B871700 		addiw	a5,a5,1
 293 01a0 1B870700 		sext.w	a4,a5
 294 01a4 2328F500 		sw	a5,16(a0)
  64:src/MySem.cpp ****         TCB* t = handle->getThread();
 295              		.loc 1 64 5 is_stmt 1
 296              	.LBB2:
 297 01a8 6356E000 		blez	a4,.L29
 298              	.LBE2:
  72:src/MySem.cpp **** 
 299              		.loc 1 72 12 is_stmt 0
 300 01ac 13050000 		li	a0,0
 301              	.LVL27:
  74:src/MySem.cpp **** 
 302              		.loc 1 74 1
 303 01b0 67800000 		ret
 304              	.LVL28:
 305              	.L29:
  59:src/MySem.cpp ****     if(handle == nullptr){
 306              		.loc 1 59 37
 307 01b4 130101FF 		addi	sp,sp,-16
 308              		.cfi_def_cfa_offset 16
 309 01b8 23341100 		sd	ra,8(sp)
 310 01bc 23308100 		sd	s0,0(sp)
 311              		.cfi_offset 1, -8
 312              		.cfi_offset 8, -16
 313 01c0 13040101 		addi	s0,sp,16
 314              		.cfi_def_cfa 8, 0
 315              	.LBB4:
 316              	.LBB3:
  65:src/MySem.cpp ****         t->blocked = false;
 317              		.loc 1 65 9 is_stmt 1
  65:src/MySem.cpp ****         t->blocked = false;
 318              		.loc 1 65 35 is_stmt 0
 319 01c4 97000000 		call	_ZN5MySem9getThreadEv
 319      E7800000 
 320              	.LVL29:
  66:src/MySem.cpp ****         if(t != nullptr) {
 321              		.loc 1 66 9 is_stmt 1
  66:src/MySem.cpp ****         if(t != nullptr) {
 322              		.loc 1 66 20 is_stmt 0
 323 01cc 23010502 		sb	zero,34(a0)
  67:src/MySem.cpp ****             Scheduler::put(t);
 324              		.loc 1 67 9 is_stmt 1
 325 01d0 63040502 		beqz	a0,.L24
  68:src/MySem.cpp ****         }
GAS LISTING /tmp/cc8yofls.s 			page 9


 326              		.loc 1 68 13
  68:src/MySem.cpp ****         }
 327              		.loc 1 68 27 is_stmt 0
 328 01d4 97000000 		call	_ZN9Scheduler3putEP3TCB@plt
 328      E7800000 
 329              	.LVL30:
 330              	.LBE3:
 331              	.LBE4:
  72:src/MySem.cpp **** 
 332              		.loc 1 72 12
 333 01dc 13050000 		li	a0,0
 334              	.L21:
  74:src/MySem.cpp **** 
 335              		.loc 1 74 1
 336 01e0 83308100 		ld	ra,8(sp)
 337              		.cfi_restore 1
 338 01e4 03340100 		ld	s0,0(sp)
 339              		.cfi_restore 8
 340              		.cfi_def_cfa 2, 16
 341 01e8 13010101 		addi	sp,sp,16
 342              		.cfi_def_cfa_offset 0
 343 01ec 67800000 		jr	ra
 344              	.LVL31:
 345              	.L22:
  61:src/MySem.cpp ****     }
 346              		.loc 1 61 17
 347 01f0 1305F0FF 		li	a0,-1
 348              	.LVL32:
 349 01f4 67800000 		ret
 350              	.LVL33:
 351              	.L24:
 352              		.cfi_def_cfa_register 8
 353              		.cfi_offset 1, -8
 354              		.cfi_offset 8, -16
  72:src/MySem.cpp **** 
 355              		.loc 1 72 12
 356 01f8 13050000 		li	a0,0
 357              	.LVL34:
 358 01fc 6FF05FFE 		j	.L21
 359              		.cfi_endproc
 360              	.LFE12:
 362              		.align	2
 363              		.globl	_ZN5MySem9putThreadEP3TCB
 365              	_ZN5MySem9putThreadEP3TCB:
 366              	.LFB14:
  88:src/MySem.cpp **** 
  89:src/MySem.cpp **** void MySem::putThread(TCB *t) {
 367              		.loc 1 89 31 is_stmt 1
 368              		.cfi_startproc
 369              	.LVL35:
 370 0200 130101FE 		addi	sp,sp,-32
 371              		.cfi_def_cfa_offset 32
 372 0204 233C1100 		sd	ra,24(sp)
 373 0208 23388100 		sd	s0,16(sp)
 374 020c 23349100 		sd	s1,8(sp)
 375 0210 23302101 		sd	s2,0(sp)
 376              		.cfi_offset 1, -8
GAS LISTING /tmp/cc8yofls.s 			page 10


 377              		.cfi_offset 8, -16
 378              		.cfi_offset 9, -24
 379              		.cfi_offset 18, -32
 380 0214 13040102 		addi	s0,sp,32
 381              		.cfi_def_cfa 8, 0
 382 0218 93040500 		mv	s1,a0
 383 021c 13890500 		mv	s2,a1
  90:src/MySem.cpp ****     Blocked* newB =(Blocked*) MemoryAllocator::getInstance()._mem_alloc(sizeof(Blocked)/MEM_BLOCK_S
 384              		.loc 1 90 5
 385              		.loc 1 90 60 is_stmt 0
 386 0220 97000000 		call	_ZN15MemoryAllocator11getInstanceEv@plt
 386      E7800000 
 387              	.LVL36:
 388              		.loc 1 90 72
 389 0228 93051000 		li	a1,1
 390 022c 97000000 		call	_ZN15MemoryAllocator10_mem_allocEm@plt
 390      E7800000 
 391              	.LVL37:
  91:src/MySem.cpp ****     newB->blocked = t;
 392              		.loc 1 91 5 is_stmt 1
 393              		.loc 1 91 19 is_stmt 0
 394 0234 23302501 		sd	s2,0(a0)
  92:src/MySem.cpp ****     newB->next = nullptr;
 395              		.loc 1 92 5 is_stmt 1
 396              		.loc 1 92 16 is_stmt 0
 397 0238 23340500 		sd	zero,8(a0)
  93:src/MySem.cpp **** 
  94:src/MySem.cpp ****     if(head == nullptr){
 398              		.loc 1 94 5 is_stmt 1
 399              		.loc 1 94 8 is_stmt 0
 400 023c 83B70400 		ld	a5,0(s1)
 401              		.loc 1 94 5
 402 0240 63840702 		beqz	a5,.L34
  95:src/MySem.cpp ****         head = tail = newB;
  96:src/MySem.cpp ****     }else{
  97:src/MySem.cpp ****         tail->next = newB;
 403              		.loc 1 97 9 is_stmt 1
 404 0244 83B78400 		ld	a5,8(s1)
 405              		.loc 1 97 20 is_stmt 0
 406 0248 23B4A700 		sd	a0,8(a5)
  98:src/MySem.cpp ****         tail = newB;
 407              		.loc 1 98 9 is_stmt 1
 408              		.loc 1 98 14 is_stmt 0
 409 024c 23B4A400 		sd	a0,8(s1)
 410              	.L30:
  99:src/MySem.cpp ****     }
 100:src/MySem.cpp **** }
 411              		.loc 1 100 1
 412 0250 83308101 		ld	ra,24(sp)
 413              		.cfi_remember_state
 414              		.cfi_restore 1
 415 0254 03340101 		ld	s0,16(sp)
 416              		.cfi_restore 8
 417              		.cfi_def_cfa 2, 32
 418 0258 83348100 		ld	s1,8(sp)
 419              		.cfi_restore 9
 420              	.LVL38:
GAS LISTING /tmp/cc8yofls.s 			page 11


 421 025c 03390100 		ld	s2,0(sp)
 422              		.cfi_restore 18
 423              	.LVL39:
 424 0260 13010102 		addi	sp,sp,32
 425              		.cfi_def_cfa_offset 0
 426 0264 67800000 		jr	ra
 427              	.LVL40:
 428              	.L34:
 429              		.cfi_restore_state
  95:src/MySem.cpp ****     }else{
 430              		.loc 1 95 9 is_stmt 1
  95:src/MySem.cpp ****     }else{
 431              		.loc 1 95 21 is_stmt 0
 432 0268 23B4A400 		sd	a0,8(s1)
  95:src/MySem.cpp ****     }else{
 433              		.loc 1 95 14
 434 026c 23B0A400 		sd	a0,0(s1)
 435 0270 6FF01FFE 		j	.L30
 436              		.cfi_endproc
 437              	.LFE14:
 439              		.align	2
 440              		.globl	_ZN5MySem7semWaitEPS_
 442              	_ZN5MySem7semWaitEPS_:
 443              	.LFB11:
  46:src/MySem.cpp ****     if(handle == nullptr){
 444              		.loc 1 46 35 is_stmt 1
 445              		.cfi_startproc
 446              	.LVL41:
  47:src/MySem.cpp ****         return -1;
 447              		.loc 1 47 5
 448 0274 63080506 		beqz	a0,.L37
  50:src/MySem.cpp ****         if(TCB::running->closed) return -1;
 449              		.loc 1 50 5
  50:src/MySem.cpp ****         if(TCB::running->closed) return -1;
 450              		.loc 1 50 18 is_stmt 0
 451 0278 83270501 		lw	a5,16(a0)
  50:src/MySem.cpp ****         if(TCB::running->closed) return -1;
 452              		.loc 1 50 8
 453 027c 9B87F7FF 		addiw	a5,a5,-1
  50:src/MySem.cpp ****         if(TCB::running->closed) return -1;
 454              		.loc 1 50 19
 455 0280 2328F500 		sw	a5,16(a0)
  50:src/MySem.cpp ****         if(TCB::running->closed) return -1;
 456              		.loc 1 50 5
 457 0284 13970702 		slli	a4,a5,32
 458 0288 63460700 		bltz	a4,.L44
  56:src/MySem.cpp **** }
 459              		.loc 1 56 12
 460 028c 13050000 		li	a0,0
 461              	.LVL42:
 462 0290 67800000 		ret
 463              	.LVL43:
 464              	.L44:
  51:src/MySem.cpp ****         TCB::running->blocked = true;
 465              		.loc 1 51 9 is_stmt 1
  51:src/MySem.cpp ****         TCB::running->blocked = true;
 466              		.loc 1 51 26 is_stmt 0
GAS LISTING /tmp/cc8yofls.s 			page 12


 467 0294 97070000 		la	a5,_ZN3TCB7runningE
 467      83B70700 
 468 029c 83B50700 		ld	a1,0(a5)
 469 02a0 83C71502 		lbu	a5,33(a1)
  51:src/MySem.cpp ****         TCB::running->blocked = true;
 470              		.loc 1 51 9
 471 02a4 63940704 		bnez	a5,.L39
  46:src/MySem.cpp ****     if(handle == nullptr){
 472              		.loc 1 46 35
 473 02a8 130101FF 		addi	sp,sp,-16
 474              		.cfi_def_cfa_offset 16
 475 02ac 23341100 		sd	ra,8(sp)
 476 02b0 23308100 		sd	s0,0(sp)
 477              		.cfi_offset 1, -8
 478              		.cfi_offset 8, -16
 479 02b4 13040101 		addi	s0,sp,16
 480              		.cfi_def_cfa 8, 0
  52:src/MySem.cpp ****         handle->putThread(TCB::running);
 481              		.loc 1 52 9 is_stmt 1
  52:src/MySem.cpp ****         handle->putThread(TCB::running);
 482              		.loc 1 52 31 is_stmt 0
 483 02b8 93071000 		li	a5,1
 484 02bc 2381F502 		sb	a5,34(a1)
  53:src/MySem.cpp ****         TCB::dispatch();
 485              		.loc 1 53 9 is_stmt 1
  53:src/MySem.cpp ****         TCB::dispatch();
 486              		.loc 1 53 26 is_stmt 0
 487 02c0 97000000 		call	_ZN5MySem9putThreadEP3TCB
 487      E7800000 
 488              	.LVL44:
  54:src/MySem.cpp ****     }
 489              		.loc 1 54 9 is_stmt 1
  54:src/MySem.cpp ****     }
 490              		.loc 1 54 22 is_stmt 0
 491 02c8 97000000 		call	_ZN3TCB8dispatchEv@plt
 491      E7800000 
 492              	.LVL45:
  56:src/MySem.cpp **** }
 493              		.loc 1 56 12
 494 02d0 13050000 		li	a0,0
  57:src/MySem.cpp **** 
 495              		.loc 1 57 1
 496 02d4 83308100 		ld	ra,8(sp)
 497              		.cfi_restore 1
 498 02d8 03340100 		ld	s0,0(sp)
 499              		.cfi_restore 8
 500              		.cfi_def_cfa 2, 16
 501 02dc 13010101 		addi	sp,sp,16
 502              		.cfi_def_cfa_offset 0
 503 02e0 67800000 		jr	ra
 504              	.LVL46:
 505              	.L37:
  48:src/MySem.cpp ****     }
 506              		.loc 1 48 17
 507 02e4 1305F0FF 		li	a0,-1
 508              	.LVL47:
 509 02e8 67800000 		ret
GAS LISTING /tmp/cc8yofls.s 			page 13


 510              	.LVL48:
 511              	.L39:
  51:src/MySem.cpp ****         TCB::running->blocked = true;
 512              		.loc 1 51 42
 513 02ec 1305F0FF 		li	a0,-1
 514              	.LVL49:
  57:src/MySem.cpp **** 
 515              		.loc 1 57 1
 516 02f0 67800000 		ret
 517              		.cfi_endproc
 518              	.LFE11:
 520              	.Letext0:
 521              		.file 2 "src/../h/../lib/hw.h"
 522              		.file 3 "src/../h/MemoryAllocator.hpp"
 523              		.file 4 "src/../h/TCB.hpp"
 524              		.file 5 "src/../h/MySem.hpp"
 525              		.file 6 "src/../h/Scheduler.hpp"
 526              		.file 7 "src/../h/syscall_c.h"
GAS LISTING /tmp/cc8yofls.s 			page 14

