GAS LISTING /tmp/ccfa9x32.s 			page 1


   1              		.file	"Scheduler.cpp"
   2              		.option pic
   3              		.option norelax
   4              		.text
   5              	.Ltext0:
   6              		.align	2
   7              		.globl	_ZN9Scheduler3getEv
   9              	_ZN9Scheduler3getEv:
  10              	.LFB3:
  11              		.file 1 "src/Scheduler.cpp"
   1:src/Scheduler.cpp **** #include "../h/MemoryAllocator.hpp"
   2:src/Scheduler.cpp **** #include "../h/Scheduler.hpp"
   3:src/Scheduler.cpp **** #include "../lib/mem.h"
   4:src/Scheduler.cpp **** 
   5:src/Scheduler.cpp **** Elem* Scheduler::head = nullptr;
   6:src/Scheduler.cpp **** Elem* Scheduler::tail = nullptr;
   7:src/Scheduler.cpp **** 
   8:src/Scheduler.cpp **** TCB *Scheduler::get() {
  12              		.loc 1 8 23
  13              		.cfi_startproc
  14 0000 130101FE 		addi	sp,sp,-32
  15              		.cfi_def_cfa_offset 32
  16 0004 233C1100 		sd	ra,24(sp)
  17 0008 23388100 		sd	s0,16(sp)
  18 000c 23349100 		sd	s1,8(sp)
  19 0010 23302101 		sd	s2,0(sp)
  20              		.cfi_offset 1, -8
  21              		.cfi_offset 8, -16
  22              		.cfi_offset 9, -24
  23              		.cfi_offset 18, -32
  24 0014 13040102 		addi	s0,sp,32
  25              		.cfi_def_cfa 8, 0
   9:src/Scheduler.cpp ****     if(!head){
  26              		.loc 1 9 5
  27              		.loc 1 9 8 is_stmt 0
  28 0018 97040000 		ld	s1,.LANCHOR0
  28      83B40400 
  29              		.loc 1 9 5
  30 0020 638A0404 		beqz	s1,.L4
  10:src/Scheduler.cpp ****         return 0;
  11:src/Scheduler.cpp ****     }
  12:src/Scheduler.cpp ****     Elem* elem = head;
  31              		.loc 1 12 5 is_stmt 1
  32              	.LVL0:
  13:src/Scheduler.cpp ****     head = head->next;
  33              		.loc 1 13 5
  34              		.loc 1 13 18 is_stmt 0
  35 0024 83B78400 		ld	a5,8(s1)
  36              		.loc 1 13 10
  37 0028 17070000 		sd	a5,.LANCHOR0,a4
  37      2330F700 
  14:src/Scheduler.cpp ****     if(!head){
  38              		.loc 1 14 5 is_stmt 1
  39 0030 638C0702 		beqz	a5,.L6
  40              	.L3:
  15:src/Scheduler.cpp ****         tail = 0;
  16:src/Scheduler.cpp ****     }
GAS LISTING /tmp/ccfa9x32.s 			page 2


  17:src/Scheduler.cpp ****     TCB* ret = elem->data;
  41              		.loc 1 17 5
  42              		.loc 1 17 10 is_stmt 0
  43 0034 03B90400 		ld	s2,0(s1)
  44              	.LVL1:
  18:src/Scheduler.cpp ****     MemoryAllocator::getInstance()._mem_free(elem);
  45              		.loc 1 18 5 is_stmt 1
  46              		.loc 1 18 34 is_stmt 0
  47 0038 97000000 		call	_ZN15MemoryAllocator11getInstanceEv@plt
  47      E7800000 
  48              	.LVL2:
  49              		.loc 1 18 45
  50 0040 93850400 		mv	a1,s1
  51 0044 97000000 		call	_ZN15MemoryAllocator9_mem_freeEPv@plt
  51      E7800000 
  52              	.LVL3:
  19:src/Scheduler.cpp ****     return ret;
  53              		.loc 1 19 5 is_stmt 1
  54              	.L1:
  20:src/Scheduler.cpp **** }
  55              		.loc 1 20 1 is_stmt 0
  56 004c 13050900 		mv	a0,s2
  57 0050 83308101 		ld	ra,24(sp)
  58              		.cfi_remember_state
  59              		.cfi_restore 1
  60 0054 03340101 		ld	s0,16(sp)
  61              		.cfi_restore 8
  62              		.cfi_def_cfa 2, 32
  63 0058 83348100 		ld	s1,8(sp)
  64              		.cfi_restore 9
  65 005c 03390100 		ld	s2,0(sp)
  66              		.cfi_restore 18
  67 0060 13010102 		addi	sp,sp,32
  68              		.cfi_def_cfa_offset 0
  69 0064 67800000 		jr	ra
  70              	.LVL4:
  71              	.L6:
  72              		.cfi_restore_state
  15:src/Scheduler.cpp ****     }
  73              		.loc 1 15 9 is_stmt 1
  15:src/Scheduler.cpp ****     }
  74              		.loc 1 15 14 is_stmt 0
  75 0068 97070000 		sd	zero,.LANCHOR0+8,a5
  75      23B00700 
  76 0070 6FF05FFC 		j	.L3
  77              	.LVL5:
  78              	.L4:
  10:src/Scheduler.cpp ****     }
  79              		.loc 1 10 16
  80 0074 13890400 		mv	s2,s1
  81 0078 6FF05FFD 		j	.L1
  82              		.cfi_endproc
  83              	.LFE3:
  85              		.align	2
  86              		.globl	_ZN9Scheduler3putEP3TCB
  88              	_ZN9Scheduler3putEP3TCB:
  89              	.LFB4:
GAS LISTING /tmp/ccfa9x32.s 			page 3


  21:src/Scheduler.cpp **** 
  22:src/Scheduler.cpp **** void Scheduler::put(TCB *thread) {
  90              		.loc 1 22 34 is_stmt 1
  91              		.cfi_startproc
  92              	.LVL6:
  93 007c 130101FE 		addi	sp,sp,-32
  94              		.cfi_def_cfa_offset 32
  95 0080 233C1100 		sd	ra,24(sp)
  96 0084 23388100 		sd	s0,16(sp)
  97 0088 23349100 		sd	s1,8(sp)
  98              		.cfi_offset 1, -8
  99              		.cfi_offset 8, -16
 100              		.cfi_offset 9, -24
 101 008c 13040102 		addi	s0,sp,32
 102              		.cfi_def_cfa 8, 0
 103 0090 93040500 		mv	s1,a0
  23:src/Scheduler.cpp ****     Elem* elem = (Elem*)MemoryAllocator::getInstance()._mem_alloc(sizeof(Elem)/MEM_BLOCK_SIZE + (si
 104              		.loc 1 23 5
 105              		.loc 1 23 54 is_stmt 0
 106 0094 97000000 		call	_ZN15MemoryAllocator11getInstanceEv@plt
 106      E7800000 
 107              	.LVL7:
 108              		.loc 1 23 66
 109 009c 93051000 		li	a1,1
 110 00a0 97000000 		call	_ZN15MemoryAllocator10_mem_allocEm@plt
 110      E7800000 
 111              	.LVL8:
  24:src/Scheduler.cpp ****     elem->data = thread;
 112              		.loc 1 24 5 is_stmt 1
 113              		.loc 1 24 16 is_stmt 0
 114 00a8 23309500 		sd	s1,0(a0)
  25:src/Scheduler.cpp ****     elem->next = 0;
 115              		.loc 1 25 5 is_stmt 1
 116              		.loc 1 25 16 is_stmt 0
 117 00ac 23340500 		sd	zero,8(a0)
  26:src/Scheduler.cpp ****     if(tail != nullptr){
 118              		.loc 1 26 5 is_stmt 1
 119              		.loc 1 26 13 is_stmt 0
 120 00b0 97070000 		ld	a5,.LANCHOR0+8
 120      83B70700 
 121              		.loc 1 26 5
 122 00b8 63820702 		beqz	a5,.L8
  27:src/Scheduler.cpp ****         tail->next = elem;
 123              		.loc 1 27 9 is_stmt 1
 124              		.loc 1 27 20 is_stmt 0
 125 00bc 23B4A700 		sd	a0,8(a5)
  28:src/Scheduler.cpp ****         tail = elem;
 126              		.loc 1 28 9 is_stmt 1
 127              		.loc 1 28 14 is_stmt 0
 128 00c0 97070000 		sd	a0,.LANCHOR0+8,a5
 128      23B0A700 
 129              	.L7:
  29:src/Scheduler.cpp ****     }else{
  30:src/Scheduler.cpp ****         head = tail = elem;
  31:src/Scheduler.cpp ****     }
  32:src/Scheduler.cpp **** }
 130              		.loc 1 32 1
GAS LISTING /tmp/ccfa9x32.s 			page 4


 131 00c8 83308101 		ld	ra,24(sp)
 132              		.cfi_remember_state
 133              		.cfi_restore 1
 134 00cc 03340101 		ld	s0,16(sp)
 135              		.cfi_restore 8
 136              		.cfi_def_cfa 2, 32
 137 00d0 83348100 		ld	s1,8(sp)
 138              		.cfi_restore 9
 139              	.LVL9:
 140 00d4 13010102 		addi	sp,sp,32
 141              		.cfi_def_cfa_offset 0
 142 00d8 67800000 		jr	ra
 143              	.LVL10:
 144              	.L8:
 145              		.cfi_restore_state
  30:src/Scheduler.cpp ****     }
 146              		.loc 1 30 9 is_stmt 1
  30:src/Scheduler.cpp ****     }
 147              		.loc 1 30 21 is_stmt 0
 148 00dc 97070000 		lla	a5,.LANCHOR0
 148      93870700 
 149 00e4 23B4A700 		sd	a0,8(a5)
  30:src/Scheduler.cpp ****     }
 150              		.loc 1 30 14
 151 00e8 23B0A700 		sd	a0,0(a5)
 152              		.loc 1 32 1
 153 00ec 6FF0DFFD 		j	.L7
 154              		.cfi_endproc
 155              	.LFE4:
 157              		.globl	_ZN9Scheduler4tailE
 158              		.globl	_ZN9Scheduler4headE
 159              		.bss
 160              		.align	3
 161              		.set	.LANCHOR0,. + 0
 164              	_ZN9Scheduler4headE:
 165 0000 00000000 		.zero	8
 165      00000000 
 168              	_ZN9Scheduler4tailE:
 169 0008 00000000 		.zero	8
 169      00000000 
 170              		.text
 171              	.Letext0:
 172              		.file 2 "src/../h/../lib/hw.h"
 173              		.file 3 "src/../h/MemoryAllocator.hpp"
 174              		.file 4 "src/../h/Scheduler.hpp"
GAS LISTING /tmp/ccfa9x32.s 			page 5


DEFINED SYMBOLS
                            *ABS*:0000000000000000 Scheduler.cpp
     /tmp/ccfa9x32.s:9      .text:0000000000000000 _ZN9Scheduler3getEv
     /tmp/ccfa9x32.s:13     .text:0000000000000000 .L0 
     /tmp/ccfa9x32.s:14     .text:0000000000000000 .L0 
     /tmp/ccfa9x32.s:15     .text:0000000000000004 .L0 
     /tmp/ccfa9x32.s:20     .text:0000000000000014 .L0 
     /tmp/ccfa9x32.s:21     .text:0000000000000014 .L0 
     /tmp/ccfa9x32.s:22     .text:0000000000000014 .L0 
     /tmp/ccfa9x32.s:23     .text:0000000000000014 .L0 
     /tmp/ccfa9x32.s:25     .text:0000000000000018 .L0 
     /tmp/ccfa9x32.s:27     .text:0000000000000018 .L0 
     /tmp/ccfa9x32.s:28     .text:0000000000000018 .L0 
     /tmp/ccfa9x32.s:30     .text:0000000000000020 .L0 
     /tmp/ccfa9x32.s:33     .text:0000000000000024 .L0 
     /tmp/ccfa9x32.s:34     .text:0000000000000024 .L0 
     /tmp/ccfa9x32.s:35     .text:0000000000000024 .L0 
     /tmp/ccfa9x32.s:37     .text:0000000000000028 .L0 
     /tmp/ccfa9x32.s:39     .text:0000000000000030 .L0 
     /tmp/ccfa9x32.s:42     .text:0000000000000034 .L0 
     /tmp/ccfa9x32.s:43     .text:0000000000000034 .L0 
     /tmp/ccfa9x32.s:46     .text:0000000000000038 .L0 
     /tmp/ccfa9x32.s:47     .text:0000000000000038 .L0 
     /tmp/ccfa9x32.s:50     .text:0000000000000040 .L0 
     /tmp/ccfa9x32.s:55     .text:000000000000004c .L0 
     /tmp/ccfa9x32.s:56     .text:000000000000004c .L0 
     /tmp/ccfa9x32.s:58     .text:0000000000000054 .L0 
     /tmp/ccfa9x32.s:59     .text:0000000000000054 .L0 
     /tmp/ccfa9x32.s:61     .text:0000000000000058 .L0 
     /tmp/ccfa9x32.s:62     .text:0000000000000058 .L0 
     /tmp/ccfa9x32.s:64     .text:000000000000005c .L0 
     /tmp/ccfa9x32.s:66     .text:0000000000000060 .L0 
     /tmp/ccfa9x32.s:68     .text:0000000000000064 .L0 
     /tmp/ccfa9x32.s:72     .text:0000000000000068 .L0 
     /tmp/ccfa9x32.s:74     .text:0000000000000068 .L0 
     /tmp/ccfa9x32.s:75     .text:0000000000000068 .L0 
     /tmp/ccfa9x32.s:80     .text:0000000000000074 .L0 
     /tmp/ccfa9x32.s:82     .text:000000000000007c .L0 
     /tmp/ccfa9x32.s:88     .text:000000000000007c _ZN9Scheduler3putEP3TCB
     /tmp/ccfa9x32.s:91     .text:000000000000007c .L0 
     /tmp/ccfa9x32.s:93     .text:000000000000007c .L0 
     /tmp/ccfa9x32.s:94     .text:0000000000000080 .L0 
     /tmp/ccfa9x32.s:98     .text:000000000000008c .L0 
     /tmp/ccfa9x32.s:99     .text:000000000000008c .L0 
     /tmp/ccfa9x32.s:100    .text:000000000000008c .L0 
     /tmp/ccfa9x32.s:102    .text:0000000000000090 .L0 
     /tmp/ccfa9x32.s:105    .text:0000000000000094 .L0 
     /tmp/ccfa9x32.s:106    .text:0000000000000094 .L0 
     /tmp/ccfa9x32.s:109    .text:000000000000009c .L0 
     /tmp/ccfa9x32.s:113    .text:00000000000000a8 .L0 
     /tmp/ccfa9x32.s:114    .text:00000000000000a8 .L0 
     /tmp/ccfa9x32.s:116    .text:00000000000000ac .L0 
     /tmp/ccfa9x32.s:117    .text:00000000000000ac .L0 
     /tmp/ccfa9x32.s:119    .text:00000000000000b0 .L0 
     /tmp/ccfa9x32.s:120    .text:00000000000000b0 .L0 
     /tmp/ccfa9x32.s:122    .text:00000000000000b8 .L0 
     /tmp/ccfa9x32.s:124    .text:00000000000000bc .L0 
GAS LISTING /tmp/ccfa9x32.s 			page 6


     /tmp/ccfa9x32.s:125    .text:00000000000000bc .L0 
     /tmp/ccfa9x32.s:127    .text:00000000000000c0 .L0 
     /tmp/ccfa9x32.s:128    .text:00000000000000c0 .L0 
     /tmp/ccfa9x32.s:131    .text:00000000000000c8 .L0 
     /tmp/ccfa9x32.s:132    .text:00000000000000cc .L0 
     /tmp/ccfa9x32.s:133    .text:00000000000000cc .L0 
     /tmp/ccfa9x32.s:135    .text:00000000000000d0 .L0 
     /tmp/ccfa9x32.s:136    .text:00000000000000d0 .L0 
     /tmp/ccfa9x32.s:138    .text:00000000000000d4 .L0 
     /tmp/ccfa9x32.s:141    .text:00000000000000d8 .L0 
     /tmp/ccfa9x32.s:145    .text:00000000000000dc .L0 
     /tmp/ccfa9x32.s:147    .text:00000000000000dc .L0 
     /tmp/ccfa9x32.s:148    .text:00000000000000dc .L0 
     /tmp/ccfa9x32.s:151    .text:00000000000000e8 .L0 
     /tmp/ccfa9x32.s:153    .text:00000000000000ec .L0 
     /tmp/ccfa9x32.s:154    .text:00000000000000f0 .L0 
     /tmp/ccfa9x32.s:168    .bss:0000000000000008 _ZN9Scheduler4tailE
     /tmp/ccfa9x32.s:164    .bss:0000000000000000 _ZN9Scheduler4headE
     /tmp/ccfa9x32.s:161    .bss:0000000000000000 .LANCHOR0
     /tmp/ccfa9x32.s:175    .text:00000000000000f0 .L0 
     /tmp/ccfa9x32.s:28     .text:0000000000000018 .L0 
     /tmp/ccfa9x32.s:37     .text:0000000000000028 .L0 
     /tmp/ccfa9x32.s:75     .text:0000000000000068 .L0 
     /tmp/ccfa9x32.s:120    .text:00000000000000b0 .L0 
     /tmp/ccfa9x32.s:128    .text:00000000000000c0 .L0 
     /tmp/ccfa9x32.s:148    .text:00000000000000dc .L0 
     /tmp/ccfa9x32.s:78     .text:0000000000000074 .L4
     /tmp/ccfa9x32.s:71     .text:0000000000000068 .L6
     /tmp/ccfa9x32.s:40     .text:0000000000000034 .L3
     /tmp/ccfa9x32.s:54     .text:000000000000004c .L1
     /tmp/ccfa9x32.s:144    .text:00000000000000dc .L8
     /tmp/ccfa9x32.s:129    .text:00000000000000c8 .L7
     /tmp/ccfa9x32.s:584    .debug_abbrev:0000000000000000 .Ldebug_abbrev0
     /tmp/ccfa9x32.s:1224   .debug_str:000000000000014c .LASF35
     /tmp/ccfa9x32.s:1232   .debug_str:000000000000022e .LASF36
     /tmp/ccfa9x32.s:1254   .debug_str:000000000000031c .LASF37
     /tmp/ccfa9x32.s:5      .text:0000000000000000 .Ltext0
     /tmp/ccfa9x32.s:171    .text:00000000000000f0 .Letext0
     /tmp/ccfa9x32.s:1176   .debug_line:0000000000000000 .Ldebug_line0
     /tmp/ccfa9x32.s:1236   .debug_str:0000000000000262 .LASF0
     /tmp/ccfa9x32.s:1216   .debug_str:0000000000000121 .LASF1
     /tmp/ccfa9x32.s:1208   .debug_str:00000000000000ee .LASF2
     /tmp/ccfa9x32.s:1192   .debug_str:0000000000000065 .LASF4
     /tmp/ccfa9x32.s:1212   .debug_str:0000000000000104 .LASF3
     /tmp/ccfa9x32.s:1182   .debug_str:0000000000000023 .LASF5
     /tmp/ccfa9x32.s:1178   .debug_str:0000000000000000 .LASF6
     /tmp/ccfa9x32.s:1200   .debug_str:00000000000000a4 .LASF7
     /tmp/ccfa9x32.s:1242   .debug_str:00000000000002bc .LASF8
     /tmp/ccfa9x32.s:1190   .debug_str:0000000000000057 .LASF9
     /tmp/ccfa9x32.s:1266   .debug_str:0000000000000368 .LASF10
     /tmp/ccfa9x32.s:1204   .debug_str:00000000000000bc .LASF11
     /tmp/ccfa9x32.s:1260   .debug_str:000000000000034e .LASF12
     /tmp/ccfa9x32.s:1250   .debug_str:0000000000000302 .LASF13
     /tmp/ccfa9x32.s:1220   .debug_str:000000000000013b .LASF14
     /tmp/ccfa9x32.s:1196   .debug_str:0000000000000084 .LASF15
     /tmp/ccfa9x32.s:1244   .debug_str:00000000000002cc .LASF16
     /tmp/ccfa9x32.s:1210   .debug_str:00000000000000fc .LASF25
GAS LISTING /tmp/ccfa9x32.s 			page 7


     /tmp/ccfa9x32.s:1184   .debug_str:000000000000002a .LASF17
     /tmp/ccfa9x32.s:1264   .debug_str:0000000000000363 .LASF18
     /tmp/ccfa9x32.s:1262   .debug_str:000000000000035e .LASF19
     /tmp/ccfa9x32.s:1180   .debug_str:0000000000000013 .LASF28
     /tmp/ccfa9x32.s:1230   .debug_str:0000000000000229 .LASF20
     /tmp/ccfa9x32.s:1258   .debug_str:0000000000000344 .LASF38
     /tmp/ccfa9x32.s:1238   .debug_str:000000000000026f .LASF39
     /tmp/ccfa9x32.s:1214   .debug_str:0000000000000116 .LASF21
     /tmp/ccfa9x32.s:1206   .debug_str:00000000000000cb .LASF23
     /tmp/ccfa9x32.s:1252   .debug_str:0000000000000312 .LASF22
     /tmp/ccfa9x32.s:1234   .debug_str:0000000000000240 .LASF24
     /tmp/ccfa9x32.s:1246   .debug_str:00000000000002e2 .LASF31
     /tmp/ccfa9x32.s:1240   .debug_str:0000000000000298 .LASF40
     /tmp/ccfa9x32.s:1222   .debug_str:0000000000000147 .LASF26
     /tmp/ccfa9x32.s:1202   .debug_str:00000000000000b7 .LASF27
     /tmp/ccfa9x32.s:1248   .debug_str:00000000000002ee .LASF41
     /tmp/ccfa9x32.s:1198   .debug_str:000000000000009a .LASF29
     /tmp/ccfa9x32.s:1256   .debug_str:000000000000033f .LASF30
     /tmp/ccfa9x32.s:1188   .debug_str:0000000000000043 .LASF42
     /tmp/ccfa9x32.s:1194   .debug_str:000000000000006c .LASF43
     /tmp/ccfa9x32.s:1186   .debug_str:000000000000002f .LASF32
     /tmp/ccfa9x32.s:1228   .debug_str:0000000000000215 .LASF33
     /tmp/ccfa9x32.s:89     .text:000000000000007c .LFB4
     /tmp/ccfa9x32.s:155    .text:00000000000000f0 .LFE4
     /tmp/ccfa9x32.s:1218   .debug_str:0000000000000134 .LASF44
     /tmp/ccfa9x32.s:1123   .debug_loc:0000000000000000 .LLST2
     /tmp/ccfa9x32.s:1226   .debug_str:0000000000000210 .LASF34
     /tmp/ccfa9x32.s:107    .text:000000000000009c .LVL7
     /tmp/ccfa9x32.s:111    .text:00000000000000a8 .LVL8
     /tmp/ccfa9x32.s:10     .text:0000000000000000 .LFB3
     /tmp/ccfa9x32.s:83     .text:000000000000007c .LFE3
     /tmp/ccfa9x32.s:1145   .debug_loc:000000000000005f .LLST0
     /tmp/ccfa9x32.s:1156   .debug_loc:0000000000000095 .LLST1
     /tmp/ccfa9x32.s:48     .text:0000000000000040 .LVL2
     /tmp/ccfa9x32.s:52     .text:000000000000004c .LVL3
     /tmp/ccfa9x32.s:92     .text:000000000000007c .LVL6
     /tmp/ccfa9x32.s:139    .text:00000000000000d4 .LVL9
     /tmp/ccfa9x32.s:143    .text:00000000000000dc .LVL10
     /tmp/ccfa9x32.s:32     .text:0000000000000024 .LVL0
     /tmp/ccfa9x32.s:70     .text:0000000000000068 .LVL4
     /tmp/ccfa9x32.s:77     .text:0000000000000074 .LVL5
     /tmp/ccfa9x32.s:44     .text:0000000000000038 .LVL1
     /tmp/ccfa9x32.s:176    .debug_info:0000000000000000 .Ldebug_info0

UNDEFINED SYMBOLS
_ZN15MemoryAllocator11getInstanceEv
_ZN15MemoryAllocator9_mem_freeEPv
_ZN15MemoryAllocator10_mem_allocEm
