GAS LISTING /tmp/ccfa9x32.s 			page 1


   1              		.file	"Scheduler.cpp"
   2              		.option pic
   3              		.option norelax
   4              		.text
   5              	.Ltext0:
   6              		.align	2
   7              		.globl	_ZN9Scheduler3getEv
   9              	_ZN9Scheduler3getEv:
  10              	.LFB3:
  11              		.file 1 "src/Scheduler.cpp"
   1:src/Scheduler.cpp **** #include "../h/MemoryAllocator.hpp"
   2:src/Scheduler.cpp **** #include "../h/Scheduler.hpp"
   3:src/Scheduler.cpp **** #include "../lib/mem.h"
   4:src/Scheduler.cpp **** 
   5:src/Scheduler.cpp **** Elem* Scheduler::head = nullptr;
   6:src/Scheduler.cpp **** Elem* Scheduler::tail = nullptr;
   7:src/Scheduler.cpp **** 
   8:src/Scheduler.cpp **** TCB *Scheduler::get() {
  12              		.loc 1 8 23
  13              		.cfi_startproc
  14 0000 130101FE 		addi	sp,sp,-32
  15              		.cfi_def_cfa_offset 32
  16 0004 233C1100 		sd	ra,24(sp)
  17 0008 23388100 		sd	s0,16(sp)
  18 000c 23349100 		sd	s1,8(sp)
  19 0010 23302101 		sd	s2,0(sp)
  20              		.cfi_offset 1, -8
  21              		.cfi_offset 8, -16
  22              		.cfi_offset 9, -24
  23              		.cfi_offset 18, -32
  24 0014 13040102 		addi	s0,sp,32
  25              		.cfi_def_cfa 8, 0
   9:src/Scheduler.cpp ****     if(!head){
  26              		.loc 1 9 5
  27              		.loc 1 9 8 is_stmt 0
  28 0018 97040000 		ld	s1,.LANCHOR0
  28      83B40400 
  29              		.loc 1 9 5
  30 0020 638A0404 		beqz	s1,.L4
  10:src/Scheduler.cpp ****         return 0;
  11:src/Scheduler.cpp ****     }
  12:src/Scheduler.cpp ****     Elem* elem = head;
  31              		.loc 1 12 5 is_stmt 1
  32              	.LVL0:
  13:src/Scheduler.cpp ****     head = head->next;
  33              		.loc 1 13 5
  34              		.loc 1 13 18 is_stmt 0
  35 0024 83B78400 		ld	a5,8(s1)
  36              		.loc 1 13 10
  37 0028 17070000 		sd	a5,.LANCHOR0,a4
  37      2330F700 
  14:src/Scheduler.cpp ****     if(!head){
  38              		.loc 1 14 5 is_stmt 1
  39 0030 638C0702 		beqz	a5,.L6
  40              	.L3:
  15:src/Scheduler.cpp ****         tail = 0;
  16:src/Scheduler.cpp ****     }
GAS LISTING /tmp/ccfa9x32.s 			page 2


  17:src/Scheduler.cpp ****     TCB* ret = elem->data;
  41              		.loc 1 17 5
  42              		.loc 1 17 10 is_stmt 0
  43 0034 03B90400 		ld	s2,0(s1)
  44              	.LVL1:
  18:src/Scheduler.cpp ****     MemoryAllocator::getInstance()._mem_free(elem);
  45              		.loc 1 18 5 is_stmt 1
  46              		.loc 1 18 34 is_stmt 0
  47 0038 97000000 		call	_ZN15MemoryAllocator11getInstanceEv@plt
  47      E7800000 
  48              	.LVL2:
  49              		.loc 1 18 45
  50 0040 93850400 		mv	a1,s1
  51 0044 97000000 		call	_ZN15MemoryAllocator9_mem_freeEPv@plt
  51      E7800000 
  52              	.LVL3:
  19:src/Scheduler.cpp ****     return ret;
  53              		.loc 1 19 5 is_stmt 1
  54              	.L1:
  20:src/Scheduler.cpp **** }
  55              		.loc 1 20 1 is_stmt 0
  56 004c 13050900 		mv	a0,s2
  57 0050 83308101 		ld	ra,24(sp)
  58              		.cfi_remember_state
  59              		.cfi_restore 1
  60 0054 03340101 		ld	s0,16(sp)
  61              		.cfi_restore 8
  62              		.cfi_def_cfa 2, 32
  63 0058 83348100 		ld	s1,8(sp)
  64              		.cfi_restore 9
  65 005c 03390100 		ld	s2,0(sp)
  66              		.cfi_restore 18
  67 0060 13010102 		addi	sp,sp,32
  68              		.cfi_def_cfa_offset 0
  69 0064 67800000 		jr	ra
  70              	.LVL4:
  71              	.L6:
  72              		.cfi_restore_state
  15:src/Scheduler.cpp ****     }
  73              		.loc 1 15 9 is_stmt 1
  15:src/Scheduler.cpp ****     }
  74              		.loc 1 15 14 is_stmt 0
  75 0068 97070000 		sd	zero,.LANCHOR0+8,a5
  75      23B00700 
  76 0070 6FF05FFC 		j	.L3
  77              	.LVL5:
  78              	.L4:
  10:src/Scheduler.cpp ****     }
  79              		.loc 1 10 16
  80 0074 13890400 		mv	s2,s1
  81 0078 6FF05FFD 		j	.L1
  82              		.cfi_endproc
  83              	.LFE3:
  85              		.align	2
  86              		.globl	_ZN9Scheduler3putEP3TCB
  88              	_ZN9Scheduler3putEP3TCB:
  89              	.LFB4:
GAS LISTING /tmp/ccfa9x32.s 			page 3


  21:src/Scheduler.cpp **** 
  22:src/Scheduler.cpp **** void Scheduler::put(TCB *thread) {
  90              		.loc 1 22 34 is_stmt 1
  91              		.cfi_startproc
  92              	.LVL6:
  93 007c 130101FE 		addi	sp,sp,-32
  94              		.cfi_def_cfa_offset 32
  95 0080 233C1100 		sd	ra,24(sp)
  96 0084 23388100 		sd	s0,16(sp)
  97 0088 23349100 		sd	s1,8(sp)
  98              		.cfi_offset 1, -8
  99              		.cfi_offset 8, -16
 100              		.cfi_offset 9, -24
 101 008c 13040102 		addi	s0,sp,32
 102              		.cfi_def_cfa 8, 0
 103 0090 93040500 		mv	s1,a0
  23:src/Scheduler.cpp ****     Elem* elem = (Elem*)MemoryAllocator::getInstance()._mem_alloc(sizeof(Elem)/MEM_BLOCK_SIZE + (si
 104              		.loc 1 23 5
 105              		.loc 1 23 54 is_stmt 0
 106 0094 97000000 		call	_ZN15MemoryAllocator11getInstanceEv@plt
 106      E7800000 
 107              	.LVL7:
 108              		.loc 1 23 66
 109 009c 93051000 		li	a1,1
 110 00a0 97000000 		call	_ZN15MemoryAllocator10_mem_allocEm@plt
 110      E7800000 
 111              	.LVL8:
  24:src/Scheduler.cpp ****     elem->data = thread;
 112              		.loc 1 24 5 is_stmt 1
 113              		.loc 1 24 16 is_stmt 0
 114 00a8 23309500 		sd	s1,0(a0)
  25:src/Scheduler.cpp ****     elem->next = 0;
 115              		.loc 1 25 5 is_stmt 1
 116              		.loc 1 25 16 is_stmt 0
 117 00ac 23340500 		sd	zero,8(a0)
  26:src/Scheduler.cpp ****     if(tail != nullptr){
 118              		.loc 1 26 5 is_stmt 1
 119              		.loc 1 26 13 is_stmt 0
 120 00b0 97070000 		ld	a5,.LANCHOR0+8
 120      83B70700 
 121              		.loc 1 26 5
 122 00b8 63820702 		beqz	a5,.L8
  27:src/Scheduler.cpp ****         tail->next = elem;
 123              		.loc 1 27 9 is_stmt 1
 124              		.loc 1 27 20 is_stmt 0
 125 00bc 23B4A700 		sd	a0,8(a5)
  28:src/Scheduler.cpp ****         tail = elem;
 126              		.loc 1 28 9 is_stmt 1
 127              		.loc 1 28 14 is_stmt 0
 128 00c0 97070000 		sd	a0,.LANCHOR0+8,a5
 128      23B0A700 
 129              	.L7:
  29:src/Scheduler.cpp ****     }else{
  30:src/Scheduler.cpp ****         head = tail = elem;
  31:src/Scheduler.cpp ****     }
  32:src/Scheduler.cpp **** }
 130              		.loc 1 32 1
GAS LISTING /tmp/ccfa9x32.s 			page 4


 131 00c8 83308101 		ld	ra,24(sp)
 132              		.cfi_remember_state
 133              		.cfi_restore 1
 134 00cc 03340101 		ld	s0,16(sp)
 135              		.cfi_restore 8
 136              		.cfi_def_cfa 2, 32
 137 00d0 83348100 		ld	s1,8(sp)
 138              		.cfi_restore 9
 139              	.LVL9:
 140 00d4 13010102 		addi	sp,sp,32
 141              		.cfi_def_cfa_offset 0
 142 00d8 67800000 		jr	ra
 143              	.LVL10:
 144              	.L8:
 145              		.cfi_restore_state
  30:src/Scheduler.cpp ****     }
 146              		.loc 1 30 9 is_stmt 1
  30:src/Scheduler.cpp ****     }
 147              		.loc 1 30 21 is_stmt 0
 148 00dc 97070000 		lla	a5,.LANCHOR0
 148      93870700 
 149 00e4 23B4A700 		sd	a0,8(a5)
  30:src/Scheduler.cpp ****     }
 150              		.loc 1 30 14
 151 00e8 23B0A700 		sd	a0,0(a5)
 152              		.loc 1 32 1
 153 00ec 6FF0DFFD 		j	.L7
 154              		.cfi_endproc
 155              	.LFE4:
 157              		.globl	_ZN9Scheduler4tailE
 158              		.globl	_ZN9Scheduler4headE
 159              		.bss
 160              		.align	3
 161              		.set	.LANCHOR0,. + 0
 164              	_ZN9Scheduler4headE:
 165 0000 00000000 		.zero	8
 165      00000000 
 168              	_ZN9Scheduler4tailE:
 169 0008 00000000 		.zero	8
 169      00000000 
 170              		.text
 171              	.Letext0:
 172              		.file 2 "src/../h/../lib/hw.h"
 173              		.file 3 "src/../h/MemoryAllocator.hpp"
 174              		.file 4 "src/../h/Scheduler.hpp"
GAS LISTING /tmp/ccfa9x32.s 			page 5

