GAS LISTING /tmp/ccOC1n7c.s 			page 1


   1              		.file	"syscall_c.cpp"
   2              		.option pic
   3              		.option norelax
   4              		.text
   5              	.Ltext0:
   6              		.align	2
   7              		.globl	_Z9mem_allocm
   9              	_Z9mem_allocm:
  10              	.LFB5:
  11              		.file 1 "src/syscall_c.cpp"
   1:src/syscall_c.cpp **** #include "../lib/hw.h"
   2:src/syscall_c.cpp **** #include "../h/syscall_c.h"
   3:src/syscall_c.cpp **** #include "../h/TCB.hpp"
   4:src/syscall_c.cpp **** #include "../h/MemoryAllocator.hpp"
   5:src/syscall_c.cpp **** #include "../lib/mem.h"
   6:src/syscall_c.cpp **** #include "../lib/console.h"
   7:src/syscall_c.cpp **** 
   8:src/syscall_c.cpp **** void *mem_alloc(size_t size) {
  12              		.loc 1 8 30
  13              		.cfi_startproc
  14              	.LVL0:
  15 0000 130101FF 		addi	sp,sp,-16
  16              		.cfi_def_cfa_offset 16
  17 0004 23348100 		sd	s0,8(sp)
  18              		.cfi_offset 8, -8
  19 0008 13040101 		addi	s0,sp,16
  20              		.cfi_def_cfa 8, 0
   9:src/syscall_c.cpp ****     //obavezno prvo pretvaranje u blokove
  10:src/syscall_c.cpp ****     uint64 newsize = size / MEM_BLOCK_SIZE;
  21              		.loc 1 10 5
  22              		.loc 1 10 12 is_stmt 0
  23 000c 93576500 		srli	a5,a0,6
  24              	.LVL1:
  11:src/syscall_c.cpp ****     if(size%MEM_BLOCK_SIZE > 0){
  25              		.loc 1 11 5 is_stmt 1
  26              		.loc 1 11 12 is_stmt 0
  27 0010 1375F503 		andi	a0,a0,63
  28              	.LVL2:
  29              		.loc 1 11 5
  30 0014 63040500 		beqz	a0,.L2
  12:src/syscall_c.cpp ****         newsize++;
  31              		.loc 1 12 9 is_stmt 1
  32              		.loc 1 12 16 is_stmt 0
  33 0018 93871700 		addi	a5,a5,1
  34              	.LVL3:
  35              	.L2:
  13:src/syscall_c.cpp ****     }
  14:src/syscall_c.cpp ****     __asm__ volatile("mv a1, %0"::"r"(newsize));
  36              		.loc 1 14 5 is_stmt 1
  37              		.loc 1 14 48 is_stmt 0
  38              	#APP
  39              	# 14 "src/syscall_c.cpp" 1
  15              	    __asm__ volatile("li a0, 0x01");
  40              		mv a1, a5
  41              	# 0 "" 2
  42              		.loc 1 15 5 is_stmt 1
  43              		.loc 1 15 36 is_stmt 0
GAS LISTING /tmp/ccOC1n7c.s 			page 2


  44              	# 15 "src/syscall_c.cpp" 1
  16              	
  17:src/syscall_c.cpp ****     __asm__ volatile("ecall");
  45              		li a0, 0x01
  46              	# 0 "" 2
  47              		.loc 1 17 5 is_stmt 1
  48              		.loc 1 17 30 is_stmt 0
  49              	# 17 "src/syscall_c.cpp" 1
  18              	
  19:src/syscall_c.cpp ****     uint64 rez;
  50              		ecall
  51              	# 0 "" 2
  52              		.loc 1 19 5 is_stmt 1
  20:src/syscall_c.cpp ****     __asm__ volatile("mv %0, a0":"=r"(rez));
  53              		.loc 1 20 5
  54              		.loc 1 20 44 is_stmt 0
  55              	# 20 "src/syscall_c.cpp" 1
  21              	    return (void*)rez;
  56              		mv a0, a0
  57              	# 0 "" 2
  58              	.LVL4:
  59              		.loc 1 21 5 is_stmt 1
  22:src/syscall_c.cpp **** }
  60              		.loc 1 22 1 is_stmt 0
  61              	#NO_APP
  62 002c 03348100 		ld	s0,8(sp)
  63              		.cfi_restore 8
  64              		.cfi_def_cfa 2, 16
  65 0030 13010101 		addi	sp,sp,16
  66              		.cfi_def_cfa_offset 0
  67 0034 67800000 		jr	ra
  68              		.cfi_endproc
  69              	.LFE5:
  71              		.align	2
  72              		.globl	_Z8mem_freePv
  74              	_Z8mem_freePv:
  75              	.LFB6:
  23:src/syscall_c.cpp **** 
  24:src/syscall_c.cpp **** int mem_free(void *ptr) {
  76              		.loc 1 24 25 is_stmt 1
  77              		.cfi_startproc
  78              	.LVL5:
  79 0038 130101FF 		addi	sp,sp,-16
  80              		.cfi_def_cfa_offset 16
  81 003c 23348100 		sd	s0,8(sp)
  82              		.cfi_offset 8, -8
  83 0040 13040101 		addi	s0,sp,16
  84              		.cfi_def_cfa 8, 0
  25:src/syscall_c.cpp ****     void* p = ptr;
  85              		.loc 1 25 5
  86              	.LVL6:
  26:src/syscall_c.cpp ****     __asm__ volatile("mv a5, %0"::"r"(p));
  87              		.loc 1 26 5
  88              		.loc 1 26 42 is_stmt 0
  89              	#APP
  90              	# 26 "src/syscall_c.cpp" 1
  27              	    __asm__ volatile("mv a1,a5");
GAS LISTING /tmp/ccOC1n7c.s 			page 3


  91              		mv a5, a0
  92              	# 0 "" 2
  93              		.loc 1 27 5 is_stmt 1
  94              		.loc 1 27 33 is_stmt 0
  95              	# 27 "src/syscall_c.cpp" 1
  28              	    __asm__ volatile("li a0, 0x02");
  96              		mv a1,a5
  97              	# 0 "" 2
  98              		.loc 1 28 5 is_stmt 1
  99              		.loc 1 28 36 is_stmt 0
 100              	# 28 "src/syscall_c.cpp" 1
  29              	
  30:src/syscall_c.cpp ****     __asm__ volatile("ecall");
 101              		li a0, 0x02
 102              	# 0 "" 2
 103              		.loc 1 30 5 is_stmt 1
 104              		.loc 1 30 30 is_stmt 0
 105              	# 30 "src/syscall_c.cpp" 1
  31              	
  32:src/syscall_c.cpp ****     uint64 rez;
 106              		ecall
 107              	# 0 "" 2
 108              		.loc 1 32 5 is_stmt 1
  33:src/syscall_c.cpp ****     __asm__ volatile("mv %0, a0":"=r"(rez));
 109              		.loc 1 33 5
 110              		.loc 1 33 44 is_stmt 0
 111              	# 33 "src/syscall_c.cpp" 1
  34              	    return rez;
 112              		mv a0, a0
 113              	# 0 "" 2
 114              	.LVL7:
 115              		.loc 1 34 5 is_stmt 1
  35:src/syscall_c.cpp **** }
 116              		.loc 1 35 1 is_stmt 0
 117              	#NO_APP
 118 0058 1B050500 		sext.w	a0,a0
 119              	.LVL8:
 120 005c 03348100 		ld	s0,8(sp)
 121              		.cfi_restore 8
 122              		.cfi_def_cfa 2, 16
 123 0060 13010101 		addi	sp,sp,16
 124              		.cfi_def_cfa_offset 0
 125 0064 67800000 		jr	ra
 126              		.cfi_endproc
 127              	.LFE6:
 129              		.align	2
 130              		.globl	_Z13thread_createPP3TCBPFvPvES2_
 132              	_Z13thread_createPP3TCBPFvPvES2_:
 133              	.LFB7:
  36:src/syscall_c.cpp **** 
  37:src/syscall_c.cpp **** int thread_create(TCB **handle, void (*start_routine)(void *), void *arg) {
 134              		.loc 1 37 75 is_stmt 1
 135              		.cfi_startproc
 136              	.LVL9:
 137 0068 130101FD 		addi	sp,sp,-48
 138              		.cfi_def_cfa_offset 48
 139 006c 23341102 		sd	ra,40(sp)
GAS LISTING /tmp/ccOC1n7c.s 			page 4


 140 0070 23308102 		sd	s0,32(sp)
 141 0074 233C9100 		sd	s1,24(sp)
 142 0078 23382101 		sd	s2,16(sp)
 143 007c 23343101 		sd	s3,8(sp)
 144              		.cfi_offset 1, -8
 145              		.cfi_offset 8, -16
 146              		.cfi_offset 9, -24
 147              		.cfi_offset 18, -32
 148              		.cfi_offset 19, -40
 149 0080 13040103 		addi	s0,sp,48
 150              		.cfi_def_cfa 8, 0
 151 0084 13090500 		mv	s2,a0
 152 0088 93840500 		mv	s1,a1
 153 008c 93090600 		mv	s3,a2
  38:src/syscall_c.cpp ****     //receno je da mora da se alocira prvo stek pre sistemskog poziva
  39:src/syscall_c.cpp ****     uint64* stack_space;
 154              		.loc 1 39 5
  40:src/syscall_c.cpp ****     if(start_routine == nullptr){
 155              		.loc 1 40 5
 156 0090 63860504 		beqz	a1,.L8
  41:src/syscall_c.cpp ****         stack_space = nullptr;
  42:src/syscall_c.cpp ****     }else{
  43:src/syscall_c.cpp ****         stack_space = (uint64*) mem_alloc(DEFAULT_STACK_SIZE);
 157              		.loc 1 43 9
 158              		.loc 1 43 42 is_stmt 0
 159 0094 37150000 		li	a0,4096
 160              	.LVL10:
 161 0098 97000000 		call	_Z9mem_allocm
 161      E7800000 
 162              	.LVL11:
 163              	.L7:
  44:src/syscall_c.cpp ****     }
  45:src/syscall_c.cpp ****     __asm__ volatile("mv a4, %0"::"r"(stack_space));
 164              		.loc 1 45 5 is_stmt 1
 165              		.loc 1 45 52 is_stmt 0
 166              	#APP
 167              	# 45 "src/syscall_c.cpp" 1
  46              	    void* a = arg;
 168              		mv a4, a0
 169              	# 0 "" 2
 170              		.loc 1 46 5 is_stmt 1
 171              	.LVL12:
  47:src/syscall_c.cpp ****     __asm__ volatile("mv a3, %0"::"r"(a));
 172              		.loc 1 47 5
 173              		.loc 1 47 42 is_stmt 0
 174              	# 47 "src/syscall_c.cpp" 1
  48              	    void (*startr)(void*) = start_routine;
 175              		mv a3, s3
 176              	# 0 "" 2
 177              		.loc 1 48 5 is_stmt 1
 178              	.LVL13:
  49:src/syscall_c.cpp ****     __asm__ volatile("mv a2, %0"::"r"(startr));
 179              		.loc 1 49 5
 180              		.loc 1 49 47 is_stmt 0
 181              	# 49 "src/syscall_c.cpp" 1
  50              	    TCB** h = handle;
 182              		mv a2, s1
GAS LISTING /tmp/ccOC1n7c.s 			page 5


 183              	# 0 "" 2
 184              		.loc 1 50 5 is_stmt 1
 185              	.LVL14:
  51:src/syscall_c.cpp ****     __asm__ volatile("mv a1, %0"::"r"(h));
 186              		.loc 1 51 5
 187              		.loc 1 51 42 is_stmt 0
 188              	# 51 "src/syscall_c.cpp" 1
  52              	
  53:src/syscall_c.cpp **** 
  54:src/syscall_c.cpp ****     __asm__ volatile("li a0, 0x11");
 189              		mv a1, s2
 190              	# 0 "" 2
 191              		.loc 1 54 5 is_stmt 1
 192              		.loc 1 54 36 is_stmt 0
 193              	# 54 "src/syscall_c.cpp" 1
  55              	    __asm__ volatile("ecall");
 194              		li a0, 0x11
 195              	# 0 "" 2
 196              		.loc 1 55 5 is_stmt 1
 197              		.loc 1 55 30 is_stmt 0
 198              	# 55 "src/syscall_c.cpp" 1
  56              	
  57:src/syscall_c.cpp ****     uint64 rez;
 199              		ecall
 200              	# 0 "" 2
 201              		.loc 1 57 5 is_stmt 1
  58:src/syscall_c.cpp ****     __asm__ volatile("mv %0, a0":"=r"(rez));
 202              		.loc 1 58 5
 203              		.loc 1 58 44 is_stmt 0
 204              	# 58 "src/syscall_c.cpp" 1
  59              	    return rez;
 205              		mv a0, a0
 206              	# 0 "" 2
 207              	.LVL15:
 208              		.loc 1 59 5 is_stmt 1
  60:src/syscall_c.cpp **** }
 209              		.loc 1 60 1 is_stmt 0
 210              	#NO_APP
 211 00bc 1B050500 		sext.w	a0,a0
 212              	.LVL16:
 213 00c0 83308102 		ld	ra,40(sp)
 214              		.cfi_remember_state
 215              		.cfi_restore 1
 216 00c4 03340102 		ld	s0,32(sp)
 217              		.cfi_restore 8
 218              		.cfi_def_cfa 2, 48
 219 00c8 83348101 		ld	s1,24(sp)
 220              		.cfi_restore 9
 221              	.LVL17:
 222 00cc 03390101 		ld	s2,16(sp)
 223              		.cfi_restore 18
 224              	.LVL18:
 225 00d0 83398100 		ld	s3,8(sp)
 226              		.cfi_restore 19
 227              	.LVL19:
 228 00d4 13010103 		addi	sp,sp,48
 229              		.cfi_def_cfa_offset 0
GAS LISTING /tmp/ccOC1n7c.s 			page 6


 230 00d8 67800000 		jr	ra
 231              	.LVL20:
 232              	.L8:
 233              		.cfi_restore_state
  41:src/syscall_c.cpp ****     }else{
 234              		.loc 1 41 21
 235 00dc 13050000 		li	a0,0
 236              	.LVL21:
 237 00e0 6FF01FFC 		j	.L7
 238              		.cfi_endproc
 239              	.LFE7:
 241              		.align	2
 242              		.globl	_Z11thread_exitv
 244              	_Z11thread_exitv:
 245              	.LFB8:
  61:src/syscall_c.cpp **** 
  62:src/syscall_c.cpp **** 
  63:src/syscall_c.cpp **** int thread_exit() {
 246              		.loc 1 63 19 is_stmt 1
 247              		.cfi_startproc
 248 00e4 130101FF 		addi	sp,sp,-16
 249              		.cfi_def_cfa_offset 16
 250 00e8 23348100 		sd	s0,8(sp)
 251              		.cfi_offset 8, -8
 252 00ec 13040101 		addi	s0,sp,16
 253              		.cfi_def_cfa 8, 0
  64:src/syscall_c.cpp ****     __asm__ volatile("li a0, 0x12");
 254              		.loc 1 64 5
 255              		.loc 1 64 36 is_stmt 0
 256              	#APP
 257              	# 64 "src/syscall_c.cpp" 1
  65              	
  66:src/syscall_c.cpp ****     __asm__ volatile("ecall");
 258              		li a0, 0x12
 259              	# 0 "" 2
 260              		.loc 1 66 5 is_stmt 1
 261              		.loc 1 66 30 is_stmt 0
 262              	# 66 "src/syscall_c.cpp" 1
  67              	
  68:src/syscall_c.cpp ****     return 0;
 263              		ecall
 264              	# 0 "" 2
 265              		.loc 1 68 5 is_stmt 1
  69:src/syscall_c.cpp **** }
 266              		.loc 1 69 1 is_stmt 0
 267              	#NO_APP
 268 00f8 13050000 		li	a0,0
 269 00fc 03348100 		ld	s0,8(sp)
 270              		.cfi_restore 8
 271              		.cfi_def_cfa 2, 16
 272 0100 13010101 		addi	sp,sp,16
 273              		.cfi_def_cfa_offset 0
 274 0104 67800000 		jr	ra
 275              		.cfi_endproc
 276              	.LFE8:
 278              		.align	2
 279              		.globl	_Z15thread_dispatchv
GAS LISTING /tmp/ccOC1n7c.s 			page 7


 281              	_Z15thread_dispatchv:
 282              	.LFB9:
  70:src/syscall_c.cpp **** 
  71:src/syscall_c.cpp **** void thread_dispatch() {
 283              		.loc 1 71 24 is_stmt 1
 284              		.cfi_startproc
 285 0108 130101FF 		addi	sp,sp,-16
 286              		.cfi_def_cfa_offset 16
 287 010c 23348100 		sd	s0,8(sp)
 288              		.cfi_offset 8, -8
 289 0110 13040101 		addi	s0,sp,16
 290              		.cfi_def_cfa 8, 0
  72:src/syscall_c.cpp ****     __asm__ volatile("li a0, 0x13");
 291              		.loc 1 72 5
 292              		.loc 1 72 36 is_stmt 0
 293              	#APP
 294              	# 72 "src/syscall_c.cpp" 1
  73              	
  74:src/syscall_c.cpp ****     __asm__ volatile("ecall");
 295              		li a0, 0x13
 296              	# 0 "" 2
 297              		.loc 1 74 5 is_stmt 1
 298              		.loc 1 74 30 is_stmt 0
 299              	# 74 "src/syscall_c.cpp" 1
  75              	    return;
 300              		ecall
 301              	# 0 "" 2
 302              		.loc 1 75 5 is_stmt 1
  76:src/syscall_c.cpp **** }
 303              		.loc 1 76 1 is_stmt 0
 304              	#NO_APP
 305 011c 03348100 		ld	s0,8(sp)
 306              		.cfi_restore 8
 307              		.cfi_def_cfa 2, 16
 308 0120 13010101 		addi	sp,sp,16
 309              		.cfi_def_cfa_offset 0
 310 0124 67800000 		jr	ra
 311              		.cfi_endproc
 312              	.LFE9:
 314              		.align	2
 315              		.globl	_Z11thread_joinP3TCB
 317              	_Z11thread_joinP3TCB:
 318              	.LFB10:
  77:src/syscall_c.cpp **** 
  78:src/syscall_c.cpp **** void thread_join(thread_t handle) {
 319              		.loc 1 78 35 is_stmt 1
 320              		.cfi_startproc
 321              	.LVL22:
 322 0128 130101FF 		addi	sp,sp,-16
 323              		.cfi_def_cfa_offset 16
 324 012c 23348100 		sd	s0,8(sp)
 325              		.cfi_offset 8, -8
 326 0130 13040101 		addi	s0,sp,16
 327              		.cfi_def_cfa 8, 0
  79:src/syscall_c.cpp ****     __asm__ volatile("mv a1, %0"::"r"(handle));
 328              		.loc 1 79 5
 329              		.loc 1 79 47 is_stmt 0
GAS LISTING /tmp/ccOC1n7c.s 			page 8


 330              	#APP
 331              	# 79 "src/syscall_c.cpp" 1
  80              	    __asm__ volatile("li a0, 0x14");
 332              		mv a1, a0
 333              	# 0 "" 2
 334              		.loc 1 80 5 is_stmt 1
 335              		.loc 1 80 36 is_stmt 0
 336              	# 80 "src/syscall_c.cpp" 1
  81              	
  82:src/syscall_c.cpp ****     __asm__ volatile("ecall");
 337              		li a0, 0x14
 338              	# 0 "" 2
 339              		.loc 1 82 5 is_stmt 1
 340              		.loc 1 82 30 is_stmt 0
 341              	# 82 "src/syscall_c.cpp" 1
  83              	}
 342              		ecall
 343              	# 0 "" 2
 344              		.loc 1 83 1
 345              	#NO_APP
 346 0140 03348100 		ld	s0,8(sp)
 347              		.cfi_restore 8
 348              		.cfi_def_cfa 2, 16
 349 0144 13010101 		addi	sp,sp,16
 350              		.cfi_def_cfa_offset 0
 351 0148 67800000 		jr	ra
 352              		.cfi_endproc
 353              	.LFE10:
 355              		.align	2
 356              		.globl	_Z8sem_openPP5MySemj
 358              	_Z8sem_openPP5MySemj:
 359              	.LFB11:
  84:src/syscall_c.cpp **** 
  85:src/syscall_c.cpp **** int sem_open(sem_t *handle, unsigned int init) {
 360              		.loc 1 85 48 is_stmt 1
 361              		.cfi_startproc
 362              	.LVL23:
 363 014c 130101FF 		addi	sp,sp,-16
 364              		.cfi_def_cfa_offset 16
 365 0150 23348100 		sd	s0,8(sp)
 366              		.cfi_offset 8, -8
 367 0154 13040101 		addi	s0,sp,16
 368              		.cfi_def_cfa 8, 0
  86:src/syscall_c.cpp ****     __asm__ volatile("mv a2, %0"::"r"(init));
 369              		.loc 1 86 5
 370              		.loc 1 86 45 is_stmt 0
 371              	#APP
 372              	# 86 "src/syscall_c.cpp" 1
  87              	    __asm__ volatile("mv a1, %0"::"r"(handle));
 373              		mv a2, a1
 374              	# 0 "" 2
 375              		.loc 1 87 5 is_stmt 1
 376              		.loc 1 87 47 is_stmt 0
 377              	# 87 "src/syscall_c.cpp" 1
  88              	    __asm__ volatile("li a0, 0x21");
 378              		mv a1, a0
 379              	# 0 "" 2
GAS LISTING /tmp/ccOC1n7c.s 			page 9


 380              		.loc 1 88 5 is_stmt 1
 381              		.loc 1 88 36 is_stmt 0
 382              	# 88 "src/syscall_c.cpp" 1
  89              	
  90:src/syscall_c.cpp ****     __asm__ volatile("ecall");
 383              		li a0, 0x21
 384              	# 0 "" 2
 385              		.loc 1 90 5 is_stmt 1
 386              		.loc 1 90 30 is_stmt 0
 387              	# 90 "src/syscall_c.cpp" 1
  91              	
  92:src/syscall_c.cpp ****     uint64 rez;
 388              		ecall
 389              	# 0 "" 2
 390              		.loc 1 92 5 is_stmt 1
  93:src/syscall_c.cpp ****     __asm__ volatile("mv %0, a0":"=r"(rez));
 391              		.loc 1 93 5
 392              		.loc 1 93 44 is_stmt 0
 393              	# 93 "src/syscall_c.cpp" 1
  94              	    return rez;
 394              		mv a0, a0
 395              	# 0 "" 2
 396              	.LVL24:
 397              		.loc 1 94 5 is_stmt 1
  95:src/syscall_c.cpp **** }
 398              		.loc 1 95 1 is_stmt 0
 399              	#NO_APP
 400 016c 1B050500 		sext.w	a0,a0
 401              	.LVL25:
 402 0170 03348100 		ld	s0,8(sp)
 403              		.cfi_restore 8
 404              		.cfi_def_cfa 2, 16
 405 0174 13010101 		addi	sp,sp,16
 406              		.cfi_def_cfa_offset 0
 407 0178 67800000 		jr	ra
 408              		.cfi_endproc
 409              	.LFE11:
 411              		.align	2
 412              		.globl	_Z9sem_closeP5MySem
 414              	_Z9sem_closeP5MySem:
 415              	.LFB12:
  96:src/syscall_c.cpp **** 
  97:src/syscall_c.cpp **** int sem_close(sem_t handle) {
 416              		.loc 1 97 29 is_stmt 1
 417              		.cfi_startproc
 418              	.LVL26:
 419 017c 130101FF 		addi	sp,sp,-16
 420              		.cfi_def_cfa_offset 16
 421 0180 23348100 		sd	s0,8(sp)
 422              		.cfi_offset 8, -8
 423 0184 13040101 		addi	s0,sp,16
 424              		.cfi_def_cfa 8, 0
  98:src/syscall_c.cpp ****     __asm__ volatile("mv a1, %0"::"r"(handle));
 425              		.loc 1 98 5
 426              		.loc 1 98 47 is_stmt 0
 427              	#APP
 428              	# 98 "src/syscall_c.cpp" 1
GAS LISTING /tmp/ccOC1n7c.s 			page 10


  99              	    __asm__ volatile("li a0, 0x22");
 429              		mv a1, a0
 430              	# 0 "" 2
 431              		.loc 1 99 5 is_stmt 1
 432              		.loc 1 99 36 is_stmt 0
 433              	# 99 "src/syscall_c.cpp" 1
 100              	
 101:src/syscall_c.cpp ****     __asm__ volatile("ecall");
 434              		li a0, 0x22
 435              	# 0 "" 2
 436              		.loc 1 101 5 is_stmt 1
 437              		.loc 1 101 30 is_stmt 0
 438              	# 101 "src/syscall_c.cpp" 1
 102              	
 103:src/syscall_c.cpp ****     uint64 rez;
 439              		ecall
 440              	# 0 "" 2
 441              		.loc 1 103 5 is_stmt 1
 104:src/syscall_c.cpp ****     __asm__ volatile("mv %0, a0":"=r"(rez));
 442              		.loc 1 104 5
 443              		.loc 1 104 44 is_stmt 0
 444              	# 104 "src/syscall_c.cpp" 1
 105              	    return rez;
 445              		mv a0, a0
 446              	# 0 "" 2
 447              	.LVL27:
 448              		.loc 1 105 5 is_stmt 1
 106:src/syscall_c.cpp **** }
 449              		.loc 1 106 1 is_stmt 0
 450              	#NO_APP
 451 0198 1B050500 		sext.w	a0,a0
 452              	.LVL28:
 453 019c 03348100 		ld	s0,8(sp)
 454              		.cfi_restore 8
 455              		.cfi_def_cfa 2, 16
 456 01a0 13010101 		addi	sp,sp,16
 457              		.cfi_def_cfa_offset 0
 458 01a4 67800000 		jr	ra
 459              		.cfi_endproc
 460              	.LFE12:
 462              		.align	2
 463              		.globl	_Z8sem_waitP5MySem
 465              	_Z8sem_waitP5MySem:
 466              	.LFB13:
 107:src/syscall_c.cpp **** 
 108:src/syscall_c.cpp **** int sem_wait(sem_t id) {
 467              		.loc 1 108 24 is_stmt 1
 468              		.cfi_startproc
 469              	.LVL29:
 470 01a8 130101FF 		addi	sp,sp,-16
 471              		.cfi_def_cfa_offset 16
 472 01ac 23348100 		sd	s0,8(sp)
 473              		.cfi_offset 8, -8
 474 01b0 13040101 		addi	s0,sp,16
 475              		.cfi_def_cfa 8, 0
 109:src/syscall_c.cpp ****     __asm__ volatile("mv a1, %0"::"r"(id));
 476              		.loc 1 109 5
GAS LISTING /tmp/ccOC1n7c.s 			page 11


 477              		.loc 1 109 43 is_stmt 0
 478              	#APP
 479              	# 109 "src/syscall_c.cpp" 1
 110              	    __asm__ volatile("li a0, 0x23");
 480              		mv a1, a0
 481              	# 0 "" 2
 482              		.loc 1 110 5 is_stmt 1
 483              		.loc 1 110 36 is_stmt 0
 484              	# 110 "src/syscall_c.cpp" 1
 111              	
 112:src/syscall_c.cpp ****     __asm__ volatile("ecall");
 485              		li a0, 0x23
 486              	# 0 "" 2
 487              		.loc 1 112 5 is_stmt 1
 488              		.loc 1 112 30 is_stmt 0
 489              	# 112 "src/syscall_c.cpp" 1
 113              	
 114:src/syscall_c.cpp ****     uint64 rez;
 490              		ecall
 491              	# 0 "" 2
 492              		.loc 1 114 5 is_stmt 1
 115:src/syscall_c.cpp ****     __asm__ volatile("mv %0, a0":"=r"(rez));
 493              		.loc 1 115 5
 494              		.loc 1 115 44 is_stmt 0
 495              	# 115 "src/syscall_c.cpp" 1
 116              	    return rez;
 496              		mv a0, a0
 497              	# 0 "" 2
 498              	.LVL30:
 499              		.loc 1 116 5 is_stmt 1
 117:src/syscall_c.cpp **** }
 500              		.loc 1 117 1 is_stmt 0
 501              	#NO_APP
 502 01c4 1B050500 		sext.w	a0,a0
 503              	.LVL31:
 504 01c8 03348100 		ld	s0,8(sp)
 505              		.cfi_restore 8
 506              		.cfi_def_cfa 2, 16
 507 01cc 13010101 		addi	sp,sp,16
 508              		.cfi_def_cfa_offset 0
 509 01d0 67800000 		jr	ra
 510              		.cfi_endproc
 511              	.LFE13:
 513              		.align	2
 514              		.globl	_Z10sem_signalP5MySem
 516              	_Z10sem_signalP5MySem:
 517              	.LFB14:
 118:src/syscall_c.cpp **** 
 119:src/syscall_c.cpp **** int sem_signal(sem_t id) {
 518              		.loc 1 119 26 is_stmt 1
 519              		.cfi_startproc
 520              	.LVL32:
 521 01d4 130101FF 		addi	sp,sp,-16
 522              		.cfi_def_cfa_offset 16
 523 01d8 23348100 		sd	s0,8(sp)
 524              		.cfi_offset 8, -8
 525 01dc 13040101 		addi	s0,sp,16
GAS LISTING /tmp/ccOC1n7c.s 			page 12


 526              		.cfi_def_cfa 8, 0
 120:src/syscall_c.cpp ****     __asm__ volatile("mv a1, %0"::"r"(id));
 527              		.loc 1 120 5
 528              		.loc 1 120 43 is_stmt 0
 529              	#APP
 530              	# 120 "src/syscall_c.cpp" 1
 121              	    __asm__ volatile("li a0, 0x24");
 531              		mv a1, a0
 532              	# 0 "" 2
 533              		.loc 1 121 5 is_stmt 1
 534              		.loc 1 121 36 is_stmt 0
 535              	# 121 "src/syscall_c.cpp" 1
 122              	
 123:src/syscall_c.cpp ****     __asm__ volatile("ecall");
 536              		li a0, 0x24
 537              	# 0 "" 2
 538              		.loc 1 123 5 is_stmt 1
 539              		.loc 1 123 30 is_stmt 0
 540              	# 123 "src/syscall_c.cpp" 1
 124              	
 125:src/syscall_c.cpp ****     uint64 rez;
 541              		ecall
 542              	# 0 "" 2
 543              		.loc 1 125 5 is_stmt 1
 126:src/syscall_c.cpp ****     __asm__ volatile("mv %0, a0":"=r"(rez));
 544              		.loc 1 126 5
 545              		.loc 1 126 44 is_stmt 0
 546              	# 126 "src/syscall_c.cpp" 1
 127              	    return rez;
 547              		mv a0, a0
 548              	# 0 "" 2
 549              	.LVL33:
 550              		.loc 1 127 5 is_stmt 1
 128:src/syscall_c.cpp **** }
 551              		.loc 1 128 1 is_stmt 0
 552              	#NO_APP
 553 01f0 1B050500 		sext.w	a0,a0
 554              	.LVL34:
 555 01f4 03348100 		ld	s0,8(sp)
 556              		.cfi_restore 8
 557              		.cfi_def_cfa 2, 16
 558 01f8 13010101 		addi	sp,sp,16
 559              		.cfi_def_cfa_offset 0
 560 01fc 67800000 		jr	ra
 561              		.cfi_endproc
 562              	.LFE14:
 564              		.align	2
 565              		.globl	_Z10changeUserv
 567              	_Z10changeUserv:
 568              	.LFB15:
 129:src/syscall_c.cpp **** 
 130:src/syscall_c.cpp **** void changeUser() {
 569              		.loc 1 130 19 is_stmt 1
 570              		.cfi_startproc
 571 0200 130101FF 		addi	sp,sp,-16
 572              		.cfi_def_cfa_offset 16
 573 0204 23348100 		sd	s0,8(sp)
GAS LISTING /tmp/ccOC1n7c.s 			page 13


 574              		.cfi_offset 8, -8
 575 0208 13040101 		addi	s0,sp,16
 576              		.cfi_def_cfa 8, 0
 131:src/syscall_c.cpp ****     __asm__ volatile("li a0,0x25");
 577              		.loc 1 131 5
 578              		.loc 1 131 35 is_stmt 0
 579              	#APP
 580              	# 131 "src/syscall_c.cpp" 1
 132              	    __asm__ volatile("ecall");
 581              		li a0,0x25
 582              	# 0 "" 2
 583              		.loc 1 132 5 is_stmt 1
 584              		.loc 1 132 30 is_stmt 0
 585              	# 132 "src/syscall_c.cpp" 1
 133              	    return;
 586              		ecall
 587              	# 0 "" 2
 588              		.loc 1 133 5 is_stmt 1
 134:src/syscall_c.cpp **** 
 135:src/syscall_c.cpp **** }
 589              		.loc 1 135 1 is_stmt 0
 590              	#NO_APP
 591 0214 03348100 		ld	s0,8(sp)
 592              		.cfi_restore 8
 593              		.cfi_def_cfa 2, 16
 594 0218 13010101 		addi	sp,sp,16
 595              		.cfi_def_cfa_offset 0
 596 021c 67800000 		jr	ra
 597              		.cfi_endproc
 598              	.LFE15:
 600              		.align	2
 601              		.globl	_Z10time_sleepm
 603              	_Z10time_sleepm:
 604              	.LFB16:
 136:src/syscall_c.cpp **** 
 137:src/syscall_c.cpp **** int time_sleep(time_t) {
 605              		.loc 1 137 24 is_stmt 1
 606              		.cfi_startproc
 607 0220 130101FF 		addi	sp,sp,-16
 608              		.cfi_def_cfa_offset 16
 609 0224 23348100 		sd	s0,8(sp)
 610              		.cfi_offset 8, -8
 611 0228 13040101 		addi	s0,sp,16
 612              		.cfi_def_cfa 8, 0
 138:src/syscall_c.cpp ****     return 0;
 613              		.loc 1 138 5
 139:src/syscall_c.cpp **** }
 614              		.loc 1 139 1 is_stmt 0
 615 022c 13050000 		li	a0,0
 616 0230 03348100 		ld	s0,8(sp)
 617              		.cfi_restore 8
 618              		.cfi_def_cfa 2, 16
 619 0234 13010101 		addi	sp,sp,16
 620              		.cfi_def_cfa_offset 0
 621 0238 67800000 		jr	ra
 622              		.cfi_endproc
 623              	.LFE16:
GAS LISTING /tmp/ccOC1n7c.s 			page 14


 625              		.align	2
 626              		.globl	_Z4getcv
 628              	_Z4getcv:
 629              	.LFB17:
 140:src/syscall_c.cpp **** 
 141:src/syscall_c.cpp **** char getc() {
 630              		.loc 1 141 13 is_stmt 1
 631              		.cfi_startproc
 632 023c 130101FF 		addi	sp,sp,-16
 633              		.cfi_def_cfa_offset 16
 634 0240 23348100 		sd	s0,8(sp)
 635              		.cfi_offset 8, -8
 636 0244 13040101 		addi	s0,sp,16
 637              		.cfi_def_cfa 8, 0
 142:src/syscall_c.cpp **** 
 143:src/syscall_c.cpp ****     __asm__ volatile("li a0, 0x41");
 638              		.loc 1 143 5
 639              		.loc 1 143 36 is_stmt 0
 640              	#APP
 641              	# 143 "src/syscall_c.cpp" 1
 144              	
 145:src/syscall_c.cpp ****     __asm__ volatile("ecall");
 642              		li a0, 0x41
 643              	# 0 "" 2
 644              		.loc 1 145 5 is_stmt 1
 645              		.loc 1 145 30 is_stmt 0
 646              	# 145 "src/syscall_c.cpp" 1
 146              	
 147:src/syscall_c.cpp ****     char c;
 647              		ecall
 648              	# 0 "" 2
 649              		.loc 1 147 5 is_stmt 1
 148:src/syscall_c.cpp ****     __asm__ volatile("mv %0,a0":"=r"(c));
 650              		.loc 1 148 5
 651              		.loc 1 148 41 is_stmt 0
 652              	# 148 "src/syscall_c.cpp" 1
 149              	
 653              		mv a0,a0
 654              	# 0 "" 2
 655              	.LVL35:
 150:src/syscall_c.cpp ****     return c;
 656              		.loc 1 150 5 is_stmt 1
 151:src/syscall_c.cpp **** }
 657              		.loc 1 151 1 is_stmt 0
 658              	#NO_APP
 659 0254 1375F50F 		andi	a0,a0,0xff
 660 0258 03348100 		ld	s0,8(sp)
 661              		.cfi_restore 8
 662              		.cfi_def_cfa 2, 16
 663 025c 13010101 		addi	sp,sp,16
 664              		.cfi_def_cfa_offset 0
 665 0260 67800000 		jr	ra
 666              		.cfi_endproc
 667              	.LFE17:
 669              		.align	2
 670              		.globl	_Z4putcc
 672              	_Z4putcc:
GAS LISTING /tmp/ccOC1n7c.s 			page 15


 673              	.LFB18:
 152:src/syscall_c.cpp **** 
 153:src/syscall_c.cpp **** void putc(char c) {
 674              		.loc 1 153 19 is_stmt 1
 675              		.cfi_startproc
 676              	.LVL36:
 677 0264 130101FF 		addi	sp,sp,-16
 678              		.cfi_def_cfa_offset 16
 679 0268 23348100 		sd	s0,8(sp)
 680              		.cfi_offset 8, -8
 681 026c 13040101 		addi	s0,sp,16
 682              		.cfi_def_cfa 8, 0
 154:src/syscall_c.cpp **** 
 155:src/syscall_c.cpp ****     __asm__ volatile("mv a1,%0"::"r"(c));
 683              		.loc 1 155 5
 684              		.loc 1 155 41 is_stmt 0
 685              	#APP
 686              	# 155 "src/syscall_c.cpp" 1
 156              	    __asm__ volatile("li a0, 0x42");
 687              		mv a1,a0
 688              	# 0 "" 2
 689              		.loc 1 156 5 is_stmt 1
 690              		.loc 1 156 36 is_stmt 0
 691              	# 156 "src/syscall_c.cpp" 1
 157              	
 158:src/syscall_c.cpp ****     __asm__ volatile("ecall");
 692              		li a0, 0x42
 693              	# 0 "" 2
 694              		.loc 1 158 5 is_stmt 1
 695              		.loc 1 158 30 is_stmt 0
 696              	# 158 "src/syscall_c.cpp" 1
 159              	
 160:src/syscall_c.cpp **** }
 697              		ecall
 698              	# 0 "" 2
 699              		.loc 1 160 1
 700              	#NO_APP
 701 027c 03348100 		ld	s0,8(sp)
 702              		.cfi_restore 8
 703              		.cfi_def_cfa 2, 16
 704 0280 13010101 		addi	sp,sp,16
 705              		.cfi_def_cfa_offset 0
 706 0284 67800000 		jr	ra
 707              		.cfi_endproc
 708              	.LFE18:
 710              	.Letext0:
 711              		.file 2 "src/../lib/hw.h"
 712              		.file 3 "src/../h/TCB.hpp"
 713              		.file 4 "src/../h/MySem.hpp"
 714              		.file 5 "src/../h/syscall_c.h"
GAS LISTING /tmp/ccOC1n7c.s 			page 16

