GAS LISTING /tmp/ccOIZ8iu.s 			page 1


   1              		.file	"syscall_cpp.cpp"
   2              		.option pic
   3              		.option norelax
   4              		.text
   5              	.Ltext0:
   6              		.section	.text._ZN6Thread3runEv,"axG",@progbits,_ZN6Thread3runEv,comdat
   7              		.align	2
   8              		.weak	_ZN6Thread3runEv
  10              	_ZN6Thread3runEv:
  11              	.LFB5:
  12              		.file 1 "src/../h/syscall_cpp.hpp"
   1:src/../h/syscall_cpp.hpp **** 
   2:src/../h/syscall_cpp.hpp **** #ifndef _syscall_cpp
   3:src/../h/syscall_cpp.hpp **** #define _syscall_cpp
   4:src/../h/syscall_cpp.hpp **** 
   5:src/../h/syscall_cpp.hpp **** #include "syscall_c.h"
   6:src/../h/syscall_cpp.hpp **** 
   7:src/../h/syscall_cpp.hpp **** void* operator new(size_t size);
   8:src/../h/syscall_cpp.hpp **** void operator delete(void* ptr);
   9:src/../h/syscall_cpp.hpp **** 
  10:src/../h/syscall_cpp.hpp **** 
  11:src/../h/syscall_cpp.hpp **** class Thread{
  12:src/../h/syscall_cpp.hpp **** public:
  13:src/../h/syscall_cpp.hpp ****     Thread(void (*body)(void*), void* arg);
  14:src/../h/syscall_cpp.hpp ****     virtual ~Thread();
  15:src/../h/syscall_cpp.hpp **** 
  16:src/../h/syscall_cpp.hpp ****     int start();
  17:src/../h/syscall_cpp.hpp **** 
  18:src/../h/syscall_cpp.hpp ****     void join();
  19:src/../h/syscall_cpp.hpp **** 
  20:src/../h/syscall_cpp.hpp ****     static void dispatch();
  21:src/../h/syscall_cpp.hpp ****     static int sleep(time_t);
  22:src/../h/syscall_cpp.hpp ****     static void wrapper(void* arg);
  23:src/../h/syscall_cpp.hpp **** 
  24:src/../h/syscall_cpp.hpp **** protected:
  25:src/../h/syscall_cpp.hpp ****     Thread();
  26:src/../h/syscall_cpp.hpp ****     virtual void run(){}
  13              		.loc 1 26 18
  14              		.cfi_startproc
  15              	.LVL0:
  16 0000 130101FF 		addi	sp,sp,-16
  17              		.cfi_def_cfa_offset 16
  18 0004 23348100 		sd	s0,8(sp)
  19              		.cfi_offset 8, -8
  20 0008 13040101 		addi	s0,sp,16
  21              		.cfi_def_cfa 8, 0
  22              		.loc 1 26 24 is_stmt 0
  23 000c 03348100 		ld	s0,8(sp)
  24              		.cfi_restore 8
  25              		.cfi_def_cfa 2, 16
  26 0010 13010101 		addi	sp,sp,16
  27              		.cfi_def_cfa_offset 0
  28 0014 67800000 		jr	ra
  29              		.cfi_endproc
  30              	.LFE5:
  32              		.text
  33              		.align	2
GAS LISTING /tmp/ccOIZ8iu.s 			page 2


  34              		.globl	_ZN6Thread7wrapperEPv
  36              	_ZN6Thread7wrapperEPv:
  37              	.LFB24:
  38              		.file 2 "src/syscall_cpp.cpp"
   1:src/syscall_cpp.cpp **** 
   2:src/syscall_cpp.cpp **** #include "../h/syscall_cpp.hpp"
   3:src/syscall_cpp.cpp **** #include "../h/MemoryAllocator.hpp"
   4:src/syscall_cpp.cpp **** #include "../lib/mem.h"
   5:src/syscall_cpp.cpp **** #include "../h/syscall_c.h"
   6:src/syscall_cpp.cpp **** #include "../h/Scheduler.hpp"
   7:src/syscall_cpp.cpp **** 
   8:src/syscall_cpp.cpp **** extern "C" void supervisorTrap();
   9:src/syscall_cpp.cpp **** 
  10:src/syscall_cpp.cpp **** void vectorMode(){
  11:src/syscall_cpp.cpp ****     __asm__ volatile("csrw stvec, %0"::"r"((uint64)(&supervisorTrap) | 1));
  12:src/syscall_cpp.cpp **** }
  13:src/syscall_cpp.cpp **** 
  14:src/syscall_cpp.cpp **** Thread::Thread() {
  15:src/syscall_cpp.cpp ****     //redefinicija run metode
  16:src/syscall_cpp.cpp ****     this->myHandle = nullptr;
  17:src/syscall_cpp.cpp ****     this->body = wrapper;
  18:src/syscall_cpp.cpp ****     this->arg = this;
  19:src/syscall_cpp.cpp **** }
  20:src/syscall_cpp.cpp **** 
  21:src/syscall_cpp.cpp **** Thread::Thread(void (*body)(void *), void *arg) {
  22:src/syscall_cpp.cpp ****     //konstrukcija nad funkcijom neclanicom
  23:src/syscall_cpp.cpp ****     this->myHandle = nullptr;
  24:src/syscall_cpp.cpp ****     this->body = body;
  25:src/syscall_cpp.cpp ****     this->arg = arg;
  26:src/syscall_cpp.cpp **** }
  27:src/syscall_cpp.cpp **** 
  28:src/syscall_cpp.cpp **** Thread::~Thread(){
  29:src/syscall_cpp.cpp ****     //ceka da se ta nit - myHandle zavrsi pa je brise
  30:src/syscall_cpp.cpp ****     join();
  31:src/syscall_cpp.cpp ****     delete myHandle;
  32:src/syscall_cpp.cpp **** }
  33:src/syscall_cpp.cpp **** 
  34:src/syscall_cpp.cpp **** int Thread::start() {
  35:src/syscall_cpp.cpp ****     //pravi samu instancu niti i stavlja je u Scheduler
  36:src/syscall_cpp.cpp ****     return thread_create(&this->myHandle, this->body, this->arg);
  37:src/syscall_cpp.cpp **** }
  38:src/syscall_cpp.cpp **** 
  39:src/syscall_cpp.cpp **** void Thread::join() {
  40:src/syscall_cpp.cpp ****     thread_join(myHandle);
  41:src/syscall_cpp.cpp **** }
  42:src/syscall_cpp.cpp **** 
  43:src/syscall_cpp.cpp **** void Thread::dispatch() {
  44:src/syscall_cpp.cpp ****     //sinhrona promena konteksta
  45:src/syscall_cpp.cpp ****     thread_dispatch();
  46:src/syscall_cpp.cpp **** }
  47:src/syscall_cpp.cpp **** 
  48:src/syscall_cpp.cpp **** int Thread::sleep(time_t time) {
  49:src/syscall_cpp.cpp ****     return time_sleep(time);
  50:src/syscall_cpp.cpp **** }
  51:src/syscall_cpp.cpp **** 
  52:src/syscall_cpp.cpp **** void Thread::wrapper(void *arg) {
  39              		.loc 2 52 33 is_stmt 1
GAS LISTING /tmp/ccOIZ8iu.s 			page 3


  40              		.cfi_startproc
  41              	.LVL1:
  42 0000 130101FF 		addi	sp,sp,-16
  43              		.cfi_def_cfa_offset 16
  44 0004 23341100 		sd	ra,8(sp)
  45 0008 23308100 		sd	s0,0(sp)
  46              		.cfi_offset 1, -8
  47              		.cfi_offset 8, -16
  48 000c 13040101 		addi	s0,sp,16
  49              		.cfi_def_cfa 8, 0
  53:src/syscall_cpp.cpp ****     Thread* nit = (Thread*) arg;
  50              		.loc 2 53 5
  51              	.LVL2:
  54:src/syscall_cpp.cpp ****     nit->run();
  52              		.loc 2 54 5
  53              		.loc 2 54 14 is_stmt 0
  54 0010 83370500 		ld	a5,0(a0)
  55 0014 83B70701 		ld	a5,16(a5)
  56              		.loc 2 54 13
  57 0018 E7800700 		jalr	a5
  58              	.LVL3:
  55:src/syscall_cpp.cpp **** }
  59              		.loc 2 55 1
  60 001c 83308100 		ld	ra,8(sp)
  61              		.cfi_restore 1
  62 0020 03340100 		ld	s0,0(sp)
  63              		.cfi_restore 8
  64              		.cfi_def_cfa 2, 16
  65 0024 13010101 		addi	sp,sp,16
  66              		.cfi_def_cfa_offset 0
  67 0028 67800000 		jr	ra
  68              		.cfi_endproc
  69              	.LFE24:
  71              		.align	2
  72              		.globl	_ZN9SemaphoreD2Ev
  74              	_ZN9SemaphoreD2Ev:
  75              	.LFB29:
  56:src/syscall_cpp.cpp **** 
  57:src/syscall_cpp.cpp **** 
  58:src/syscall_cpp.cpp **** Semaphore::Semaphore(unsigned int init) {
  59:src/syscall_cpp.cpp ****     sem_open(&myHandle,init);
  60:src/syscall_cpp.cpp **** 
  61:src/syscall_cpp.cpp **** }
  62:src/syscall_cpp.cpp **** 
  63:src/syscall_cpp.cpp **** Semaphore::~Semaphore() {
  76              		.loc 2 63 1 is_stmt 1
  77              		.cfi_startproc
  78              		.cfi_personality 0x9b,DW.ref.__gxx_personality_v0
  79              		.cfi_lsda 0x1b,.LLSDA29
  80              	.LVL4:
  81 002c 130101FF 		addi	sp,sp,-16
  82              		.cfi_def_cfa_offset 16
  83 0030 23341100 		sd	ra,8(sp)
  84 0034 23308100 		sd	s0,0(sp)
  85              		.cfi_offset 1, -8
  86              		.cfi_offset 8, -16
  87 0038 13040101 		addi	s0,sp,16
GAS LISTING /tmp/ccOIZ8iu.s 			page 4


  88              		.cfi_def_cfa 8, 0
  89              	.LBB6:
  90              		.loc 2 63 23 is_stmt 0
  91 003c 97070000 		lla	a5,_ZTV9Semaphore+16
  91      93870700 
  92 0044 2330F500 		sd	a5,0(a0)
  64:src/syscall_cpp.cpp ****     sem_close(myHandle);
  93              		.loc 2 64 5 is_stmt 1
  94              		.loc 2 64 14 is_stmt 0
  95 0048 03358500 		ld	a0,8(a0)
  96              	.LVL5:
  97 004c 97000000 		call	_Z9sem_closeP5MySem@plt
  97      E7800000 
  98              	.LVL6:
  99              	.LBE6:
  65:src/syscall_cpp.cpp **** }
 100              		.loc 2 65 1
 101 0054 83308100 		ld	ra,8(sp)
 102              		.cfi_restore 1
 103 0058 03340100 		ld	s0,0(sp)
 104              		.cfi_restore 8
 105              		.cfi_def_cfa 2, 16
 106 005c 13010101 		addi	sp,sp,16
 107              		.cfi_def_cfa_offset 0
 108 0060 67800000 		jr	ra
 109              		.cfi_endproc
 110              	.LFE29:
 111              		.globl	__gxx_personality_v0
 112              		.section	.gcc_except_table,"a",@progbits
 113              	.LLSDA29:
 114 0000 FF       		.byte	0xff
 115 0001 FF       		.byte	0xff
 116 0002 03       		.byte	0x3
 117 0003 00       		.byte	0
 118              		.text
 120              		.globl	_ZN9SemaphoreD1Ev
 121              		.set	_ZN9SemaphoreD1Ev,_ZN9SemaphoreD2Ev
 122              		.align	2
 123              		.globl	_Z10vectorModev
 125              	_Z10vectorModev:
 126              	.LFB9:
  10:src/syscall_cpp.cpp ****     __asm__ volatile("csrw stvec, %0"::"r"((uint64)(&supervisorTrap) | 1));
 127              		.loc 2 10 18 is_stmt 1
 128              		.cfi_startproc
 129 0064 130101FF 		addi	sp,sp,-16
 130              		.cfi_def_cfa_offset 16
 131 0068 23348100 		sd	s0,8(sp)
 132              		.cfi_offset 8, -8
 133 006c 13040101 		addi	s0,sp,16
 134              		.cfi_def_cfa 8, 0
  11:src/syscall_cpp.cpp **** }
 135              		.loc 2 11 5
  11:src/syscall_cpp.cpp **** }
 136              		.loc 2 11 70 is_stmt 0
 137 0070 97070000 		la	a5,supervisorTrap
 137      83B70700 
 138 0078 93E71700 		ori	a5,a5,1
GAS LISTING /tmp/ccOIZ8iu.s 			page 5


  11:src/syscall_cpp.cpp **** }
 139              		.loc 2 11 75
 140              	#APP
 141              	# 11 "src/syscall_cpp.cpp" 1
  12:src/syscall_cpp.cpp **** 
 142              		csrw stvec, a5
 143              	# 0 "" 2
 144              		.loc 2 12 1
 145              	#NO_APP
 146 0080 03348100 		ld	s0,8(sp)
 147              		.cfi_restore 8
 148              		.cfi_def_cfa 2, 16
 149 0084 13010101 		addi	sp,sp,16
 150              		.cfi_def_cfa_offset 0
 151 0088 67800000 		jr	ra
 152              		.cfi_endproc
 153              	.LFE9:
 155              		.align	2
 156              		.globl	_ZN6ThreadC2Ev
 158              	_ZN6ThreadC2Ev:
 159              	.LFB11:
  14:src/syscall_cpp.cpp ****     //redefinicija run metode
 160              		.loc 2 14 1 is_stmt 1
 161              		.cfi_startproc
 162              	.LVL7:
 163 008c 130101FF 		addi	sp,sp,-16
 164              		.cfi_def_cfa_offset 16
 165 0090 23348100 		sd	s0,8(sp)
 166              		.cfi_offset 8, -8
 167 0094 13040101 		addi	s0,sp,16
 168              		.cfi_def_cfa 8, 0
 169              	.LBB7:
  14:src/syscall_cpp.cpp ****     //redefinicija run metode
 170              		.loc 2 14 16 is_stmt 0
 171 0098 97070000 		lla	a5,_ZTV6Thread+16
 171      93870700 
 172 00a0 2330F500 		sd	a5,0(a0)
  16:src/syscall_cpp.cpp ****     this->body = wrapper;
 173              		.loc 2 16 5 is_stmt 1
  16:src/syscall_cpp.cpp ****     this->body = wrapper;
 174              		.loc 2 16 20 is_stmt 0
 175 00a4 23340500 		sd	zero,8(a0)
  17:src/syscall_cpp.cpp ****     this->arg = this;
 176              		.loc 2 17 5 is_stmt 1
  17:src/syscall_cpp.cpp ****     this->arg = this;
 177              		.loc 2 17 16 is_stmt 0
 178 00a8 97070000 		lla	a5,_ZN6Thread7wrapperEPv
 178      93870700 
 179 00b0 2338F500 		sd	a5,16(a0)
  18:src/syscall_cpp.cpp **** }
 180              		.loc 2 18 5 is_stmt 1
  18:src/syscall_cpp.cpp **** }
 181              		.loc 2 18 15 is_stmt 0
 182 00b4 233CA500 		sd	a0,24(a0)
 183              	.LBE7:
  19:src/syscall_cpp.cpp **** 
 184              		.loc 2 19 1
GAS LISTING /tmp/ccOIZ8iu.s 			page 6


 185 00b8 03348100 		ld	s0,8(sp)
 186              		.cfi_restore 8
 187              		.cfi_def_cfa 2, 16
 188 00bc 13010101 		addi	sp,sp,16
 189              		.cfi_def_cfa_offset 0
 190 00c0 67800000 		jr	ra
 191              		.cfi_endproc
 192              	.LFE11:
 194              		.globl	_ZN6ThreadC1Ev
 195              		.set	_ZN6ThreadC1Ev,_ZN6ThreadC2Ev
 196              		.align	2
 197              		.globl	_ZN6ThreadC2EPFvPvES0_
 199              	_ZN6ThreadC2EPFvPvES0_:
 200              	.LFB14:
  21:src/syscall_cpp.cpp ****     //konstrukcija nad funkcijom neclanicom
 201              		.loc 2 21 1 is_stmt 1
 202              		.cfi_startproc
 203              	.LVL8:
 204 00c4 130101FF 		addi	sp,sp,-16
 205              		.cfi_def_cfa_offset 16
 206 00c8 23348100 		sd	s0,8(sp)
 207              		.cfi_offset 8, -8
 208 00cc 13040101 		addi	s0,sp,16
 209              		.cfi_def_cfa 8, 0
 210              	.LBB8:
  21:src/syscall_cpp.cpp ****     //konstrukcija nad funkcijom neclanicom
 211              		.loc 2 21 47 is_stmt 0
 212 00d0 97070000 		lla	a5,_ZTV6Thread+16
 212      93870700 
 213 00d8 2330F500 		sd	a5,0(a0)
  23:src/syscall_cpp.cpp ****     this->body = body;
 214              		.loc 2 23 5 is_stmt 1
  23:src/syscall_cpp.cpp ****     this->body = body;
 215              		.loc 2 23 20 is_stmt 0
 216 00dc 23340500 		sd	zero,8(a0)
  24:src/syscall_cpp.cpp ****     this->arg = arg;
 217              		.loc 2 24 5 is_stmt 1
  24:src/syscall_cpp.cpp ****     this->arg = arg;
 218              		.loc 2 24 16 is_stmt 0
 219 00e0 2338B500 		sd	a1,16(a0)
  25:src/syscall_cpp.cpp **** }
 220              		.loc 2 25 5 is_stmt 1
  25:src/syscall_cpp.cpp **** }
 221              		.loc 2 25 15 is_stmt 0
 222 00e4 233CC500 		sd	a2,24(a0)
 223              	.LBE8:
  26:src/syscall_cpp.cpp **** 
 224              		.loc 2 26 1
 225 00e8 03348100 		ld	s0,8(sp)
 226              		.cfi_restore 8
 227              		.cfi_def_cfa 2, 16
 228 00ec 13010101 		addi	sp,sp,16
 229              		.cfi_def_cfa_offset 0
 230 00f0 67800000 		jr	ra
 231              		.cfi_endproc
 232              	.LFE14:
 234              		.globl	_ZN6ThreadC1EPFvPvES0_
GAS LISTING /tmp/ccOIZ8iu.s 			page 7


 235              		.set	_ZN6ThreadC1EPFvPvES0_,_ZN6ThreadC2EPFvPvES0_
 236              		.align	2
 237              		.globl	_ZN6Thread5startEv
 239              	_ZN6Thread5startEv:
 240              	.LFB20:
  34:src/syscall_cpp.cpp ****     //pravi samu instancu niti i stavlja je u Scheduler
 241              		.loc 2 34 21 is_stmt 1
 242              		.cfi_startproc
 243              	.LVL9:
 244 00f4 130101FF 		addi	sp,sp,-16
 245              		.cfi_def_cfa_offset 16
 246 00f8 23341100 		sd	ra,8(sp)
 247 00fc 23308100 		sd	s0,0(sp)
 248              		.cfi_offset 1, -8
 249              		.cfi_offset 8, -16
 250 0100 13040101 		addi	s0,sp,16
 251              		.cfi_def_cfa 8, 0
  36:src/syscall_cpp.cpp **** }
 252              		.loc 2 36 5
  36:src/syscall_cpp.cpp **** }
 253              		.loc 2 36 25 is_stmt 0
 254 0104 03368501 		ld	a2,24(a0)
 255 0108 83350501 		ld	a1,16(a0)
 256 010c 13058500 		addi	a0,a0,8
 257              	.LVL10:
 258 0110 97000000 		call	_Z13thread_createPP3TCBPFvPvES2_@plt
 258      E7800000 
 259              	.LVL11:
  37:src/syscall_cpp.cpp **** 
 260              		.loc 2 37 1
 261 0118 83308100 		ld	ra,8(sp)
 262              		.cfi_restore 1
 263 011c 03340100 		ld	s0,0(sp)
 264              		.cfi_restore 8
 265              		.cfi_def_cfa 2, 16
 266 0120 13010101 		addi	sp,sp,16
 267              		.cfi_def_cfa_offset 0
 268 0124 67800000 		jr	ra
 269              		.cfi_endproc
 270              	.LFE20:
 272              		.align	2
 273              		.globl	_ZN6Thread4joinEv
 275              	_ZN6Thread4joinEv:
 276              	.LFB21:
  39:src/syscall_cpp.cpp ****     thread_join(myHandle);
 277              		.loc 2 39 21 is_stmt 1
 278              		.cfi_startproc
 279              	.LVL12:
 280 0128 130101FF 		addi	sp,sp,-16
 281              		.cfi_def_cfa_offset 16
 282 012c 23341100 		sd	ra,8(sp)
 283 0130 23308100 		sd	s0,0(sp)
 284              		.cfi_offset 1, -8
 285              		.cfi_offset 8, -16
 286 0134 13040101 		addi	s0,sp,16
 287              		.cfi_def_cfa 8, 0
  40:src/syscall_cpp.cpp **** }
GAS LISTING /tmp/ccOIZ8iu.s 			page 8


 288              		.loc 2 40 5
  40:src/syscall_cpp.cpp **** }
 289              		.loc 2 40 16 is_stmt 0
 290 0138 03358500 		ld	a0,8(a0)
 291              	.LVL13:
 292 013c 97000000 		call	_Z11thread_joinP3TCB@plt
 292      E7800000 
 293              	.LVL14:
  41:src/syscall_cpp.cpp **** 
 294              		.loc 2 41 1
 295 0144 83308100 		ld	ra,8(sp)
 296              		.cfi_restore 1
 297 0148 03340100 		ld	s0,0(sp)
 298              		.cfi_restore 8
 299              		.cfi_def_cfa 2, 16
 300 014c 13010101 		addi	sp,sp,16
 301              		.cfi_def_cfa_offset 0
 302 0150 67800000 		jr	ra
 303              		.cfi_endproc
 304              	.LFE21:
 306              		.align	2
 307              		.globl	_ZN6Thread8dispatchEv
 309              	_ZN6Thread8dispatchEv:
 310              	.LFB22:
  43:src/syscall_cpp.cpp ****     //sinhrona promena konteksta
 311              		.loc 2 43 25 is_stmt 1
 312              		.cfi_startproc
 313 0154 130101FF 		addi	sp,sp,-16
 314              		.cfi_def_cfa_offset 16
 315 0158 23341100 		sd	ra,8(sp)
 316 015c 23308100 		sd	s0,0(sp)
 317              		.cfi_offset 1, -8
 318              		.cfi_offset 8, -16
 319 0160 13040101 		addi	s0,sp,16
 320              		.cfi_def_cfa 8, 0
  45:src/syscall_cpp.cpp **** }
 321              		.loc 2 45 5
  45:src/syscall_cpp.cpp **** }
 322              		.loc 2 45 20 is_stmt 0
 323 0164 97000000 		call	_Z15thread_dispatchv@plt
 323      E7800000 
 324              	.LVL15:
  46:src/syscall_cpp.cpp **** 
 325              		.loc 2 46 1
 326 016c 83308100 		ld	ra,8(sp)
 327              		.cfi_restore 1
 328 0170 03340100 		ld	s0,0(sp)
 329              		.cfi_restore 8
 330              		.cfi_def_cfa 2, 16
 331 0174 13010101 		addi	sp,sp,16
 332              		.cfi_def_cfa_offset 0
 333 0178 67800000 		jr	ra
 334              		.cfi_endproc
 335              	.LFE22:
 337              		.align	2
 338              		.globl	_ZN6Thread5sleepEm
 340              	_ZN6Thread5sleepEm:
GAS LISTING /tmp/ccOIZ8iu.s 			page 9


 341              	.LFB23:
  48:src/syscall_cpp.cpp ****     return time_sleep(time);
 342              		.loc 2 48 32 is_stmt 1
 343              		.cfi_startproc
 344              	.LVL16:
 345 017c 130101FF 		addi	sp,sp,-16
 346              		.cfi_def_cfa_offset 16
 347 0180 23341100 		sd	ra,8(sp)
 348 0184 23308100 		sd	s0,0(sp)
 349              		.cfi_offset 1, -8
 350              		.cfi_offset 8, -16
 351 0188 13040101 		addi	s0,sp,16
 352              		.cfi_def_cfa 8, 0
  49:src/syscall_cpp.cpp **** }
 353              		.loc 2 49 5
  49:src/syscall_cpp.cpp **** }
 354              		.loc 2 49 22 is_stmt 0
 355 018c 97000000 		call	_Z10time_sleepm@plt
 355      E7800000 
 356              	.LVL17:
  50:src/syscall_cpp.cpp **** 
 357              		.loc 2 50 1
 358 0194 83308100 		ld	ra,8(sp)
 359              		.cfi_restore 1
 360 0198 03340100 		ld	s0,0(sp)
 361              		.cfi_restore 8
 362              		.cfi_def_cfa 2, 16
 363 019c 13010101 		addi	sp,sp,16
 364              		.cfi_def_cfa_offset 0
 365 01a0 67800000 		jr	ra
 366              		.cfi_endproc
 367              	.LFE23:
 369              		.align	2
 370              		.globl	_ZN9SemaphoreC2Ej
 372              	_ZN9SemaphoreC2Ej:
 373              	.LFB26:
  58:src/syscall_cpp.cpp ****     sem_open(&myHandle,init);
 374              		.loc 2 58 1 is_stmt 1
 375              		.cfi_startproc
 376              	.LVL18:
 377 01a4 130101FF 		addi	sp,sp,-16
 378              		.cfi_def_cfa_offset 16
 379 01a8 23341100 		sd	ra,8(sp)
 380 01ac 23308100 		sd	s0,0(sp)
 381              		.cfi_offset 1, -8
 382              		.cfi_offset 8, -16
 383 01b0 13040101 		addi	s0,sp,16
 384              		.cfi_def_cfa 8, 0
 385              	.LBB9:
  58:src/syscall_cpp.cpp ****     sem_open(&myHandle,init);
 386              		.loc 2 58 39 is_stmt 0
 387 01b4 97070000 		lla	a5,_ZTV9Semaphore+16
 387      93870700 
 388 01bc 2330F500 		sd	a5,0(a0)
  59:src/syscall_cpp.cpp **** 
 389              		.loc 2 59 5 is_stmt 1
  59:src/syscall_cpp.cpp **** 
GAS LISTING /tmp/ccOIZ8iu.s 			page 10


 390              		.loc 2 59 13 is_stmt 0
 391 01c0 13058500 		addi	a0,a0,8
 392              	.LVL19:
 393 01c4 97000000 		call	_Z8sem_openPP5MySemj@plt
 393      E7800000 
 394              	.LVL20:
 395              	.LBE9:
  61:src/syscall_cpp.cpp **** 
 396              		.loc 2 61 1
 397 01cc 83308100 		ld	ra,8(sp)
 398              		.cfi_restore 1
 399 01d0 03340100 		ld	s0,0(sp)
 400              		.cfi_restore 8
 401              		.cfi_def_cfa 2, 16
 402 01d4 13010101 		addi	sp,sp,16
 403              		.cfi_def_cfa_offset 0
 404 01d8 67800000 		jr	ra
 405              		.cfi_endproc
 406              	.LFE26:
 408              		.globl	_ZN9SemaphoreC1Ej
 409              		.set	_ZN9SemaphoreC1Ej,_ZN9SemaphoreC2Ej
 410              		.align	2
 411              		.globl	_ZN9Semaphore4waitEv
 413              	_ZN9Semaphore4waitEv:
 414              	.LFB32:
  66:src/syscall_cpp.cpp **** 
  67:src/syscall_cpp.cpp **** int Semaphore::wait() {
 415              		.loc 2 67 23 is_stmt 1
 416              		.cfi_startproc
 417              	.LVL21:
 418 01dc 130101FF 		addi	sp,sp,-16
 419              		.cfi_def_cfa_offset 16
 420 01e0 23341100 		sd	ra,8(sp)
 421 01e4 23308100 		sd	s0,0(sp)
 422              		.cfi_offset 1, -8
 423              		.cfi_offset 8, -16
 424 01e8 13040101 		addi	s0,sp,16
 425              		.cfi_def_cfa 8, 0
  68:src/syscall_cpp.cpp ****     return sem_wait(myHandle);
 426              		.loc 2 68 5
 427              		.loc 2 68 20 is_stmt 0
 428 01ec 03358500 		ld	a0,8(a0)
 429              	.LVL22:
 430 01f0 97000000 		call	_Z8sem_waitP5MySem@plt
 430      E7800000 
 431              	.LVL23:
  69:src/syscall_cpp.cpp **** }
 432              		.loc 2 69 1
 433 01f8 83308100 		ld	ra,8(sp)
 434              		.cfi_restore 1
 435 01fc 03340100 		ld	s0,0(sp)
 436              		.cfi_restore 8
 437              		.cfi_def_cfa 2, 16
 438 0200 13010101 		addi	sp,sp,16
 439              		.cfi_def_cfa_offset 0
 440 0204 67800000 		jr	ra
 441              		.cfi_endproc
GAS LISTING /tmp/ccOIZ8iu.s 			page 11


 442              	.LFE32:
 444              		.align	2
 445              		.globl	_ZN9Semaphore6signalEv
 447              	_ZN9Semaphore6signalEv:
 448              	.LFB33:
  70:src/syscall_cpp.cpp **** 
  71:src/syscall_cpp.cpp **** int Semaphore::signal() {
 449              		.loc 2 71 25 is_stmt 1
 450              		.cfi_startproc
 451              	.LVL24:
 452 0208 130101FF 		addi	sp,sp,-16
 453              		.cfi_def_cfa_offset 16
 454 020c 23341100 		sd	ra,8(sp)
 455 0210 23308100 		sd	s0,0(sp)
 456              		.cfi_offset 1, -8
 457              		.cfi_offset 8, -16
 458 0214 13040101 		addi	s0,sp,16
 459              		.cfi_def_cfa 8, 0
  72:src/syscall_cpp.cpp ****    return sem_signal(myHandle);
 460              		.loc 2 72 4
 461              		.loc 2 72 21 is_stmt 0
 462 0218 03358500 		ld	a0,8(a0)
 463              	.LVL25:
 464 021c 97000000 		call	_Z10sem_signalP5MySem@plt
 464      E7800000 
 465              	.LVL26:
  73:src/syscall_cpp.cpp **** }
 466              		.loc 2 73 1
 467 0224 83308100 		ld	ra,8(sp)
 468              		.cfi_restore 1
 469 0228 03340100 		ld	s0,0(sp)
 470              		.cfi_restore 8
 471              		.cfi_def_cfa 2, 16
 472 022c 13010101 		addi	sp,sp,16
 473              		.cfi_def_cfa_offset 0
 474 0230 67800000 		jr	ra
 475              		.cfi_endproc
 476              	.LFE33:
 478              		.align	2
 479              		.globl	_ZN7Console4getcEv
 481              	_ZN7Console4getcEv:
 482              	.LFB34:
  74:src/syscall_cpp.cpp **** 
  75:src/syscall_cpp.cpp **** 
  76:src/syscall_cpp.cpp **** /*
  77:src/syscall_cpp.cpp **** void PeriodicThread::terminate() {
  78:src/syscall_cpp.cpp **** 
  79:src/syscall_cpp.cpp **** }
  80:src/syscall_cpp.cpp **** 
  81:src/syscall_cpp.cpp **** PeriodicThread::PeriodicThread(time_t period) {
  82:src/syscall_cpp.cpp **** 
  83:src/syscall_cpp.cpp **** }
  84:src/syscall_cpp.cpp **** */
  85:src/syscall_cpp.cpp **** char Console::getc() {
 483              		.loc 2 85 22 is_stmt 1
 484              		.cfi_startproc
 485 0234 130101FF 		addi	sp,sp,-16
GAS LISTING /tmp/ccOIZ8iu.s 			page 12


 486              		.cfi_def_cfa_offset 16
 487 0238 23341100 		sd	ra,8(sp)
 488 023c 23308100 		sd	s0,0(sp)
 489              		.cfi_offset 1, -8
 490              		.cfi_offset 8, -16
 491 0240 13040101 		addi	s0,sp,16
 492              		.cfi_def_cfa 8, 0
  86:src/syscall_cpp.cpp ****     return ::getc();
 493              		.loc 2 86 5
 494              		.loc 2 86 18 is_stmt 0
 495 0244 97000000 		call	_Z4getcv@plt
 495      E7800000 
 496              	.LVL27:
  87:src/syscall_cpp.cpp **** }
 497              		.loc 2 87 1
 498 024c 83308100 		ld	ra,8(sp)
 499              		.cfi_restore 1
 500 0250 03340100 		ld	s0,0(sp)
 501              		.cfi_restore 8
 502              		.cfi_def_cfa 2, 16
 503 0254 13010101 		addi	sp,sp,16
 504              		.cfi_def_cfa_offset 0
 505 0258 67800000 		jr	ra
 506              		.cfi_endproc
 507              	.LFE34:
 509              		.align	2
 510              		.globl	_ZN7Console4putcEc
 512              	_ZN7Console4putcEc:
 513              	.LFB35:
  88:src/syscall_cpp.cpp **** 
  89:src/syscall_cpp.cpp **** void Console::putc(char c) {
 514              		.loc 2 89 28 is_stmt 1
 515              		.cfi_startproc
 516              	.LVL28:
 517 025c 130101FF 		addi	sp,sp,-16
 518              		.cfi_def_cfa_offset 16
 519 0260 23341100 		sd	ra,8(sp)
 520 0264 23308100 		sd	s0,0(sp)
 521              		.cfi_offset 1, -8
 522              		.cfi_offset 8, -16
 523 0268 13040101 		addi	s0,sp,16
 524              		.cfi_def_cfa 8, 0
  90:src/syscall_cpp.cpp ****     ::putc(c);
 525              		.loc 2 90 5
 526              		.loc 2 90 11 is_stmt 0
 527 026c 97000000 		call	_Z4putcc@plt
 527      E7800000 
 528              	.LVL29:
  91:src/syscall_cpp.cpp **** }
 529              		.loc 2 91 1
 530 0274 83308100 		ld	ra,8(sp)
 531              		.cfi_restore 1
 532 0278 03340100 		ld	s0,0(sp)
 533              		.cfi_restore 8
 534              		.cfi_def_cfa 2, 16
 535 027c 13010101 		addi	sp,sp,16
 536              		.cfi_def_cfa_offset 0
GAS LISTING /tmp/ccOIZ8iu.s 			page 13


 537 0280 67800000 		jr	ra
 538              		.cfi_endproc
 539              	.LFE35:
 541              		.align	2
 542              		.globl	_Znwm
 544              	_Znwm:
 545              	.LFB36:
  92:src/syscall_cpp.cpp **** 
  93:src/syscall_cpp.cpp **** void *operator new(size_t size) {
 546              		.loc 2 93 33 is_stmt 1
 547              		.cfi_startproc
 548              	.LVL30:
 549 0284 130101FF 		addi	sp,sp,-16
 550              		.cfi_def_cfa_offset 16
 551 0288 23341100 		sd	ra,8(sp)
 552 028c 23308100 		sd	s0,0(sp)
 553              		.cfi_offset 1, -8
 554              		.cfi_offset 8, -16
 555 0290 13040101 		addi	s0,sp,16
 556              		.cfi_def_cfa 8, 0
  94:src/syscall_cpp.cpp ****     return mem_alloc(size);
 557              		.loc 2 94 5
 558              		.loc 2 94 21 is_stmt 0
 559 0294 97000000 		call	_Z9mem_allocm@plt
 559      E7800000 
 560              	.LVL31:
  95:src/syscall_cpp.cpp **** }
 561              		.loc 2 95 1
 562 029c 83308100 		ld	ra,8(sp)
 563              		.cfi_restore 1
 564 02a0 03340100 		ld	s0,0(sp)
 565              		.cfi_restore 8
 566              		.cfi_def_cfa 2, 16
 567 02a4 13010101 		addi	sp,sp,16
 568              		.cfi_def_cfa_offset 0
 569 02a8 67800000 		jr	ra
 570              		.cfi_endproc
 571              	.LFE36:
 573              		.align	2
 574              		.globl	_Znam
 576              	_Znam:
 577              	.LFB37:
  96:src/syscall_cpp.cpp **** void *operator new[](size_t size) {
 578              		.loc 2 96 35 is_stmt 1
 579              		.cfi_startproc
 580              	.LVL32:
 581 02ac 130101FF 		addi	sp,sp,-16
 582              		.cfi_def_cfa_offset 16
 583 02b0 23341100 		sd	ra,8(sp)
 584 02b4 23308100 		sd	s0,0(sp)
 585              		.cfi_offset 1, -8
 586              		.cfi_offset 8, -16
 587 02b8 13040101 		addi	s0,sp,16
 588              		.cfi_def_cfa 8, 0
  97:src/syscall_cpp.cpp ****     return mem_alloc(size);
 589              		.loc 2 97 5
 590              		.loc 2 97 21 is_stmt 0
GAS LISTING /tmp/ccOIZ8iu.s 			page 14


 591 02bc 97000000 		call	_Z9mem_allocm@plt
 591      E7800000 
 592              	.LVL33:
  98:src/syscall_cpp.cpp **** }
 593              		.loc 2 98 1
 594 02c4 83308100 		ld	ra,8(sp)
 595              		.cfi_restore 1
 596 02c8 03340100 		ld	s0,0(sp)
 597              		.cfi_restore 8
 598              		.cfi_def_cfa 2, 16
 599 02cc 13010101 		addi	sp,sp,16
 600              		.cfi_def_cfa_offset 0
 601 02d0 67800000 		jr	ra
 602              		.cfi_endproc
 603              	.LFE37:
 605              		.align	2
 606              		.globl	_ZdlPv
 608              	_ZdlPv:
 609              	.LFB38:
  99:src/syscall_cpp.cpp **** 
 100:src/syscall_cpp.cpp **** void operator delete(void *ptr) {
 610              		.loc 2 100 33 is_stmt 1
 611              		.cfi_startproc
 612              	.LVL34:
 613 02d4 130101FF 		addi	sp,sp,-16
 614              		.cfi_def_cfa_offset 16
 615 02d8 23341100 		sd	ra,8(sp)
 616 02dc 23308100 		sd	s0,0(sp)
 617              		.cfi_offset 1, -8
 618              		.cfi_offset 8, -16
 619 02e0 13040101 		addi	s0,sp,16
 620              		.cfi_def_cfa 8, 0
 101:src/syscall_cpp.cpp ****     mem_free(ptr);
 621              		.loc 2 101 5
 622              		.loc 2 101 13 is_stmt 0
 623 02e4 97000000 		call	_Z8mem_freePv@plt
 623      E7800000 
 624              	.LVL35:
 102:src/syscall_cpp.cpp **** }
 625              		.loc 2 102 1
 626 02ec 83308100 		ld	ra,8(sp)
 627              		.cfi_restore 1
 628 02f0 03340100 		ld	s0,0(sp)
 629              		.cfi_restore 8
 630              		.cfi_def_cfa 2, 16
 631 02f4 13010101 		addi	sp,sp,16
 632              		.cfi_def_cfa_offset 0
 633 02f8 67800000 		jr	ra
 634              		.cfi_endproc
 635              	.LFE38:
 637              		.align	2
 638              		.globl	_ZN6ThreadD2Ev
 640              	_ZN6ThreadD2Ev:
 641              	.LFB17:
  28:src/syscall_cpp.cpp ****     //ceka da se ta nit - myHandle zavrsi pa je brise
 642              		.loc 2 28 1 is_stmt 1
 643              		.cfi_startproc
GAS LISTING /tmp/ccOIZ8iu.s 			page 15


 644              		.cfi_personality 0x9b,DW.ref.__gxx_personality_v0
 645              		.cfi_lsda 0x1b,.LLSDA17
 646              	.LVL36:
 647 02fc 130101FE 		addi	sp,sp,-32
 648              		.cfi_def_cfa_offset 32
 649 0300 233C1100 		sd	ra,24(sp)
 650 0304 23388100 		sd	s0,16(sp)
 651 0308 23349100 		sd	s1,8(sp)
 652              		.cfi_offset 1, -8
 653              		.cfi_offset 8, -16
 654              		.cfi_offset 9, -24
 655 030c 13040102 		addi	s0,sp,32
 656              		.cfi_def_cfa 8, 0
 657 0310 93040500 		mv	s1,a0
 658              	.LBB10:
  28:src/syscall_cpp.cpp ****     //ceka da se ta nit - myHandle zavrsi pa je brise
 659              		.loc 2 28 17 is_stmt 0
 660 0314 97070000 		lla	a5,_ZTV6Thread+16
 660      93870700 
 661 031c 2330F500 		sd	a5,0(a0)
  30:src/syscall_cpp.cpp ****     delete myHandle;
 662              		.loc 2 30 5 is_stmt 1
  30:src/syscall_cpp.cpp ****     delete myHandle;
 663              		.loc 2 30 9 is_stmt 0
 664 0320 97000000 		call	_ZN6Thread4joinEv
 664      E7800000 
 665              	.LVL37:
  31:src/syscall_cpp.cpp **** }
 666              		.loc 2 31 5 is_stmt 1
  31:src/syscall_cpp.cpp **** }
 667              		.loc 2 31 12 is_stmt 0
 668 0328 83B48400 		ld	s1,8(s1)
 669              	.LVL38:
  31:src/syscall_cpp.cpp **** }
 670              		.loc 2 31 20
 671 032c 63820402 		beqz	s1,.L37
 672              	.LVL39:
 673              	.LBB11:
 674              	.LBB12:
 675              		.file 3 "src/../h/TCB.hpp"
   1:src/../h/TCB.hpp **** 
   2:src/../h/TCB.hpp **** #ifndef _Thread
   3:src/../h/TCB.hpp **** #define _Thread
   4:src/../h/TCB.hpp **** #include "../lib/hw.h"
   5:src/../h/TCB.hpp **** #include "MemoryAllocator.hpp"
   6:src/../h/TCB.hpp **** 
   7:src/../h/TCB.hpp **** 
   8:src/../h/TCB.hpp **** class TCB{
   9:src/../h/TCB.hpp **** public:
  10:src/../h/TCB.hpp ****     ~TCB(){
  11:src/../h/TCB.hpp ****         MemoryAllocator::getInstance()._mem_free(stack);
 676              		.loc 3 11 9 is_stmt 1
 677              		.loc 3 11 38 is_stmt 0
 678 0330 97000000 		call	_ZN15MemoryAllocator11getInstanceEv@plt
 678      E7800000 
 679              	.LVL40:
 680              		.loc 3 11 49
GAS LISTING /tmp/ccOIZ8iu.s 			page 16


 681 0338 83B58400 		ld	a1,8(s1)
 682 033c 97000000 		call	_ZN15MemoryAllocator9_mem_freeEPv@plt
 682      E7800000 
 683              	.LVL41:
 684              	.LBE12:
 685              	.LBE11:
  31:src/syscall_cpp.cpp **** }
 686              		.loc 2 31 12
 687 0344 13850400 		mv	a0,s1
 688 0348 97000000 		call	_ZdlPv
 688      E7800000 
 689              	.LVL42:
 690              	.L37:
 691              	.LBE10:
  32:src/syscall_cpp.cpp **** 
 692              		.loc 2 32 1
 693 0350 83308101 		ld	ra,24(sp)
 694              		.cfi_restore 1
 695 0354 03340101 		ld	s0,16(sp)
 696              		.cfi_restore 8
 697              		.cfi_def_cfa 2, 32
 698 0358 83348100 		ld	s1,8(sp)
 699              		.cfi_restore 9
 700 035c 13010102 		addi	sp,sp,32
 701              		.cfi_def_cfa_offset 0
 702 0360 67800000 		jr	ra
 703              		.cfi_endproc
 704              	.LFE17:
 705              		.section	.gcc_except_table
 706              	.LLSDA17:
 707 0004 FF       		.byte	0xff
 708 0005 FF       		.byte	0xff
 709 0006 03       		.byte	0x3
 710 0007 00       		.byte	0
 711              		.text
 713              		.globl	_ZN6ThreadD1Ev
 714              		.set	_ZN6ThreadD1Ev,_ZN6ThreadD2Ev
 715              		.align	2
 716              		.globl	_ZN6ThreadD0Ev
 718              	_ZN6ThreadD0Ev:
 719              	.LFB19:
  28:src/syscall_cpp.cpp ****     //ceka da se ta nit - myHandle zavrsi pa je brise
 720              		.loc 2 28 1 is_stmt 1
 721              		.cfi_startproc
 722              	.LVL43:
 723 0364 130101FE 		addi	sp,sp,-32
 724              		.cfi_def_cfa_offset 32
 725 0368 233C1100 		sd	ra,24(sp)
 726 036c 23388100 		sd	s0,16(sp)
 727 0370 23349100 		sd	s1,8(sp)
 728              		.cfi_offset 1, -8
 729              		.cfi_offset 8, -16
 730              		.cfi_offset 9, -24
 731 0374 13040102 		addi	s0,sp,32
 732              		.cfi_def_cfa 8, 0
 733 0378 93040500 		mv	s1,a0
  32:src/syscall_cpp.cpp **** 
GAS LISTING /tmp/ccOIZ8iu.s 			page 17


 734              		.loc 2 32 1 is_stmt 0
 735 037c 97000000 		call	_ZN6ThreadD1Ev
 735      E7800000 
 736              	.LVL44:
 737 0384 13850400 		mv	a0,s1
 738 0388 97000000 		call	_ZdlPv
 738      E7800000 
 739              	.LVL45:
 740 0390 83308101 		ld	ra,24(sp)
 741              		.cfi_restore 1
 742 0394 03340101 		ld	s0,16(sp)
 743              		.cfi_restore 8
 744              		.cfi_def_cfa 2, 32
 745 0398 83348100 		ld	s1,8(sp)
 746              		.cfi_restore 9
 747              	.LVL46:
 748 039c 13010102 		addi	sp,sp,32
 749              		.cfi_def_cfa_offset 0
 750 03a0 67800000 		jr	ra
 751              		.cfi_endproc
 752              	.LFE19:
 754              		.align	2
 755              		.globl	_ZN9SemaphoreD0Ev
 757              	_ZN9SemaphoreD0Ev:
 758              	.LFB31:
  63:src/syscall_cpp.cpp ****     sem_close(myHandle);
 759              		.loc 2 63 1 is_stmt 1
 760              		.cfi_startproc
 761              	.LVL47:
 762 03a4 130101FE 		addi	sp,sp,-32
 763              		.cfi_def_cfa_offset 32
 764 03a8 233C1100 		sd	ra,24(sp)
 765 03ac 23388100 		sd	s0,16(sp)
 766 03b0 23349100 		sd	s1,8(sp)
 767              		.cfi_offset 1, -8
 768              		.cfi_offset 8, -16
 769              		.cfi_offset 9, -24
 770 03b4 13040102 		addi	s0,sp,32
 771              		.cfi_def_cfa 8, 0
 772 03b8 93040500 		mv	s1,a0
  65:src/syscall_cpp.cpp **** 
 773              		.loc 2 65 1 is_stmt 0
 774 03bc 97000000 		call	_ZN9SemaphoreD1Ev
 774      E7800000 
 775              	.LVL48:
 776 03c4 13850400 		mv	a0,s1
 777 03c8 97000000 		call	_ZdlPv
 777      E7800000 
 778              	.LVL49:
 779 03d0 83308101 		ld	ra,24(sp)
 780              		.cfi_restore 1
 781 03d4 03340101 		ld	s0,16(sp)
 782              		.cfi_restore 8
 783              		.cfi_def_cfa 2, 32
 784 03d8 83348100 		ld	s1,8(sp)
 785              		.cfi_restore 9
 786              	.LVL50:
GAS LISTING /tmp/ccOIZ8iu.s 			page 18


 787 03dc 13010102 		addi	sp,sp,32
 788              		.cfi_def_cfa_offset 0
 789 03e0 67800000 		jr	ra
 790              		.cfi_endproc
 791              	.LFE31:
 793              		.align	2
 794              		.globl	_ZdaPv
 796              	_ZdaPv:
 797              	.LFB39:
 103:src/syscall_cpp.cpp **** void operator delete[](void *ptr) {
 798              		.loc 2 103 35 is_stmt 1
 799              		.cfi_startproc
 800              	.LVL51:
 801 03e4 130101FF 		addi	sp,sp,-16
 802              		.cfi_def_cfa_offset 16
 803 03e8 23341100 		sd	ra,8(sp)
 804 03ec 23308100 		sd	s0,0(sp)
 805              		.cfi_offset 1, -8
 806              		.cfi_offset 8, -16
 807 03f0 13040101 		addi	s0,sp,16
 808              		.cfi_def_cfa 8, 0
 104:src/syscall_cpp.cpp ****     mem_free(ptr);
 809              		.loc 2 104 5
 810              		.loc 2 104 13 is_stmt 0
 811 03f4 97000000 		call	_Z8mem_freePv@plt
 811      E7800000 
 812              	.LVL52:
 105:src/syscall_cpp.cpp **** }
 813              		.loc 2 105 1
 814 03fc 83308100 		ld	ra,8(sp)
 815              		.cfi_restore 1
 816 0400 03340100 		ld	s0,0(sp)
 817              		.cfi_restore 8
 818              		.cfi_def_cfa 2, 16
 819 0404 13010101 		addi	sp,sp,16
 820              		.cfi_def_cfa_offset 0
 821 0408 67800000 		jr	ra
 822              		.cfi_endproc
 823              	.LFE39:
 825              		.weak	_ZTV6Thread
 826              		.section	.data.rel.ro.local._ZTV6Thread,"awG",@progbits,_ZTV6Thread,comdat
 827              		.align	3
 830              	_ZTV6Thread:
 831 0000 00000000 		.dword	0
 831      00000000 
 832 0008 00000000 		.dword	0
 832      00000000 
 833 0010 00000000 		.dword	_ZN6ThreadD1Ev
 833      00000000 
 834 0018 00000000 		.dword	_ZN6ThreadD0Ev
 834      00000000 
 835 0020 00000000 		.dword	_ZN6Thread3runEv
 835      00000000 
 836              		.weak	_ZTV9Semaphore
 837              		.section	.data.rel.ro.local._ZTV9Semaphore,"awG",@progbits,_ZTV9Semaphore,comdat
 838              		.align	3
 841              	_ZTV9Semaphore:
GAS LISTING /tmp/ccOIZ8iu.s 			page 19


 842 0000 00000000 		.dword	0
 842      00000000 
 843 0008 00000000 		.dword	0
 843      00000000 
 844 0010 00000000 		.dword	_ZN9SemaphoreD1Ev
 844      00000000 
 845 0018 00000000 		.dword	_ZN9SemaphoreD0Ev
 845      00000000 
 846              		.text
 847              	.Letext0:
 848              		.file 4 "src/../h/../lib/hw.h"
 849              		.file 5 "src/../h/MemoryAllocator.hpp"
 850              		.file 6 "src/../h/MySem.hpp"
 851              		.file 7 "src/../h/syscall_c.h"
 4261              		.align	3
 4264              	DW.ref.__gxx_personality_v0:
 4265 0000 00000000 		.dword	__gxx_personality_v0
 4265      00000000 
 4266              		.ident	"GCC: (Ubuntu 9.4.0-1ubuntu1~20.04) 9.4.0"
 4267              		.section	.note.GNU-stack,"",@progbits
GAS LISTING /tmp/ccOIZ8iu.s 			page 20

