GAS LISTING /tmp/ccOIZ8iu.s 			page 1


   1              		.file	"syscall_cpp.cpp"
   2              		.option pic
   3              		.option norelax
   4              		.text
   5              	.Ltext0:
   6              		.section	.text._ZN6Thread3runEv,"axG",@progbits,_ZN6Thread3runEv,comdat
   7              		.align	2
   8              		.weak	_ZN6Thread3runEv
  10              	_ZN6Thread3runEv:
  11              	.LFB5:
  12              		.file 1 "src/../h/syscall_cpp.hpp"
   1:src/../h/syscall_cpp.hpp **** 
   2:src/../h/syscall_cpp.hpp **** #ifndef _syscall_cpp
   3:src/../h/syscall_cpp.hpp **** #define _syscall_cpp
   4:src/../h/syscall_cpp.hpp **** 
   5:src/../h/syscall_cpp.hpp **** #include "syscall_c.h"
   6:src/../h/syscall_cpp.hpp **** 
   7:src/../h/syscall_cpp.hpp **** void* operator new(size_t size);
   8:src/../h/syscall_cpp.hpp **** void operator delete(void* ptr);
   9:src/../h/syscall_cpp.hpp **** 
  10:src/../h/syscall_cpp.hpp **** 
  11:src/../h/syscall_cpp.hpp **** class Thread{
  12:src/../h/syscall_cpp.hpp **** public:
  13:src/../h/syscall_cpp.hpp ****     Thread(void (*body)(void*), void* arg);
  14:src/../h/syscall_cpp.hpp ****     virtual ~Thread();
  15:src/../h/syscall_cpp.hpp **** 
  16:src/../h/syscall_cpp.hpp ****     int start();
  17:src/../h/syscall_cpp.hpp **** 
  18:src/../h/syscall_cpp.hpp ****     void join();
  19:src/../h/syscall_cpp.hpp **** 
  20:src/../h/syscall_cpp.hpp ****     static void dispatch();
  21:src/../h/syscall_cpp.hpp ****     static int sleep(time_t);
  22:src/../h/syscall_cpp.hpp ****     static void wrapper(void* arg);
  23:src/../h/syscall_cpp.hpp **** 
  24:src/../h/syscall_cpp.hpp **** protected:
  25:src/../h/syscall_cpp.hpp ****     Thread();
  26:src/../h/syscall_cpp.hpp ****     virtual void run(){}
  13              		.loc 1 26 18
  14              		.cfi_startproc
  15              	.LVL0:
  16 0000 130101FF 		addi	sp,sp,-16
  17              		.cfi_def_cfa_offset 16
  18 0004 23348100 		sd	s0,8(sp)
  19              		.cfi_offset 8, -8
  20 0008 13040101 		addi	s0,sp,16
  21              		.cfi_def_cfa 8, 0
  22              		.loc 1 26 24 is_stmt 0
  23 000c 03348100 		ld	s0,8(sp)
  24              		.cfi_restore 8
  25              		.cfi_def_cfa 2, 16
  26 0010 13010101 		addi	sp,sp,16
  27              		.cfi_def_cfa_offset 0
  28 0014 67800000 		jr	ra
  29              		.cfi_endproc
  30              	.LFE5:
  32              		.text
  33              		.align	2
GAS LISTING /tmp/ccOIZ8iu.s 			page 2


  34              		.globl	_ZN6Thread7wrapperEPv
  36              	_ZN6Thread7wrapperEPv:
  37              	.LFB24:
  38              		.file 2 "src/syscall_cpp.cpp"
   1:src/syscall_cpp.cpp **** 
   2:src/syscall_cpp.cpp **** #include "../h/syscall_cpp.hpp"
   3:src/syscall_cpp.cpp **** #include "../h/MemoryAllocator.hpp"
   4:src/syscall_cpp.cpp **** #include "../lib/mem.h"
   5:src/syscall_cpp.cpp **** #include "../h/syscall_c.h"
   6:src/syscall_cpp.cpp **** #include "../h/Scheduler.hpp"
   7:src/syscall_cpp.cpp **** 
   8:src/syscall_cpp.cpp **** extern "C" void supervisorTrap();
   9:src/syscall_cpp.cpp **** 
  10:src/syscall_cpp.cpp **** void vectorMode(){
  11:src/syscall_cpp.cpp ****     __asm__ volatile("csrw stvec, %0"::"r"((uint64)(&supervisorTrap) | 1));
  12:src/syscall_cpp.cpp **** }
  13:src/syscall_cpp.cpp **** 
  14:src/syscall_cpp.cpp **** Thread::Thread() {
  15:src/syscall_cpp.cpp ****     //redefinicija run metode
  16:src/syscall_cpp.cpp ****     this->myHandle = nullptr;
  17:src/syscall_cpp.cpp ****     this->body = wrapper;
  18:src/syscall_cpp.cpp ****     this->arg = this;
  19:src/syscall_cpp.cpp **** }
  20:src/syscall_cpp.cpp **** 
  21:src/syscall_cpp.cpp **** Thread::Thread(void (*body)(void *), void *arg) {
  22:src/syscall_cpp.cpp ****     //konstrukcija nad funkcijom neclanicom
  23:src/syscall_cpp.cpp ****     this->myHandle = nullptr;
  24:src/syscall_cpp.cpp ****     this->body = body;
  25:src/syscall_cpp.cpp ****     this->arg = arg;
  26:src/syscall_cpp.cpp **** }
  27:src/syscall_cpp.cpp **** 
  28:src/syscall_cpp.cpp **** Thread::~Thread(){
  29:src/syscall_cpp.cpp ****     //ceka da se ta nit - myHandle zavrsi pa je brise
  30:src/syscall_cpp.cpp ****     join();
  31:src/syscall_cpp.cpp ****     delete myHandle;
  32:src/syscall_cpp.cpp **** }
  33:src/syscall_cpp.cpp **** 
  34:src/syscall_cpp.cpp **** int Thread::start() {
  35:src/syscall_cpp.cpp ****     //pravi samu instancu niti i stavlja je u Scheduler
  36:src/syscall_cpp.cpp ****     return thread_create(&this->myHandle, this->body, this->arg);
  37:src/syscall_cpp.cpp **** }
  38:src/syscall_cpp.cpp **** 
  39:src/syscall_cpp.cpp **** void Thread::join() {
  40:src/syscall_cpp.cpp ****     thread_join(myHandle);
  41:src/syscall_cpp.cpp **** }
  42:src/syscall_cpp.cpp **** 
  43:src/syscall_cpp.cpp **** void Thread::dispatch() {
  44:src/syscall_cpp.cpp ****     //sinhrona promena konteksta
  45:src/syscall_cpp.cpp ****     thread_dispatch();
  46:src/syscall_cpp.cpp **** }
  47:src/syscall_cpp.cpp **** 
  48:src/syscall_cpp.cpp **** int Thread::sleep(time_t time) {
  49:src/syscall_cpp.cpp ****     return time_sleep(time);
  50:src/syscall_cpp.cpp **** }
  51:src/syscall_cpp.cpp **** 
  52:src/syscall_cpp.cpp **** void Thread::wrapper(void *arg) {
  39              		.loc 2 52 33 is_stmt 1
GAS LISTING /tmp/ccOIZ8iu.s 			page 3


  40              		.cfi_startproc
  41              	.LVL1:
  42 0000 130101FF 		addi	sp,sp,-16
  43              		.cfi_def_cfa_offset 16
  44 0004 23341100 		sd	ra,8(sp)
  45 0008 23308100 		sd	s0,0(sp)
  46              		.cfi_offset 1, -8
  47              		.cfi_offset 8, -16
  48 000c 13040101 		addi	s0,sp,16
  49              		.cfi_def_cfa 8, 0
  53:src/syscall_cpp.cpp ****     Thread* nit = (Thread*) arg;
  50              		.loc 2 53 5
  51              	.LVL2:
  54:src/syscall_cpp.cpp ****     nit->run();
  52              		.loc 2 54 5
  53              		.loc 2 54 14 is_stmt 0
  54 0010 83370500 		ld	a5,0(a0)
  55 0014 83B70701 		ld	a5,16(a5)
  56              		.loc 2 54 13
  57 0018 E7800700 		jalr	a5
  58              	.LVL3:
  55:src/syscall_cpp.cpp **** }
  59              		.loc 2 55 1
  60 001c 83308100 		ld	ra,8(sp)
  61              		.cfi_restore 1
  62 0020 03340100 		ld	s0,0(sp)
  63              		.cfi_restore 8
  64              		.cfi_def_cfa 2, 16
  65 0024 13010101 		addi	sp,sp,16
  66              		.cfi_def_cfa_offset 0
  67 0028 67800000 		jr	ra
  68              		.cfi_endproc
  69              	.LFE24:
  71              		.align	2
  72              		.globl	_ZN9SemaphoreD2Ev
  74              	_ZN9SemaphoreD2Ev:
  75              	.LFB29:
  56:src/syscall_cpp.cpp **** 
  57:src/syscall_cpp.cpp **** 
  58:src/syscall_cpp.cpp **** Semaphore::Semaphore(unsigned int init) {
  59:src/syscall_cpp.cpp ****     sem_open(&myHandle,init);
  60:src/syscall_cpp.cpp **** 
  61:src/syscall_cpp.cpp **** }
  62:src/syscall_cpp.cpp **** 
  63:src/syscall_cpp.cpp **** Semaphore::~Semaphore() {
  76              		.loc 2 63 1 is_stmt 1
  77              		.cfi_startproc
  78              		.cfi_personality 0x9b,DW.ref.__gxx_personality_v0
  79              		.cfi_lsda 0x1b,.LLSDA29
  80              	.LVL4:
  81 002c 130101FF 		addi	sp,sp,-16
  82              		.cfi_def_cfa_offset 16
  83 0030 23341100 		sd	ra,8(sp)
  84 0034 23308100 		sd	s0,0(sp)
  85              		.cfi_offset 1, -8
  86              		.cfi_offset 8, -16
  87 0038 13040101 		addi	s0,sp,16
GAS LISTING /tmp/ccOIZ8iu.s 			page 4


  88              		.cfi_def_cfa 8, 0
  89              	.LBB6:
  90              		.loc 2 63 23 is_stmt 0
  91 003c 97070000 		lla	a5,_ZTV9Semaphore+16
  91      93870700 
  92 0044 2330F500 		sd	a5,0(a0)
  64:src/syscall_cpp.cpp ****     sem_close(myHandle);
  93              		.loc 2 64 5 is_stmt 1
  94              		.loc 2 64 14 is_stmt 0
  95 0048 03358500 		ld	a0,8(a0)
  96              	.LVL5:
  97 004c 97000000 		call	_Z9sem_closeP5MySem@plt
  97      E7800000 
  98              	.LVL6:
  99              	.LBE6:
  65:src/syscall_cpp.cpp **** }
 100              		.loc 2 65 1
 101 0054 83308100 		ld	ra,8(sp)
 102              		.cfi_restore 1
 103 0058 03340100 		ld	s0,0(sp)
 104              		.cfi_restore 8
 105              		.cfi_def_cfa 2, 16
 106 005c 13010101 		addi	sp,sp,16
 107              		.cfi_def_cfa_offset 0
 108 0060 67800000 		jr	ra
 109              		.cfi_endproc
 110              	.LFE29:
 111              		.globl	__gxx_personality_v0
 112              		.section	.gcc_except_table,"a",@progbits
 113              	.LLSDA29:
 114 0000 FF       		.byte	0xff
 115 0001 FF       		.byte	0xff
 116 0002 03       		.byte	0x3
 117 0003 00       		.byte	0
 118              		.text
 120              		.globl	_ZN9SemaphoreD1Ev
 121              		.set	_ZN9SemaphoreD1Ev,_ZN9SemaphoreD2Ev
 122              		.align	2
 123              		.globl	_Z10vectorModev
 125              	_Z10vectorModev:
 126              	.LFB9:
  10:src/syscall_cpp.cpp ****     __asm__ volatile("csrw stvec, %0"::"r"((uint64)(&supervisorTrap) | 1));
 127              		.loc 2 10 18 is_stmt 1
 128              		.cfi_startproc
 129 0064 130101FF 		addi	sp,sp,-16
 130              		.cfi_def_cfa_offset 16
 131 0068 23348100 		sd	s0,8(sp)
 132              		.cfi_offset 8, -8
 133 006c 13040101 		addi	s0,sp,16
 134              		.cfi_def_cfa 8, 0
  11:src/syscall_cpp.cpp **** }
 135              		.loc 2 11 5
  11:src/syscall_cpp.cpp **** }
 136              		.loc 2 11 70 is_stmt 0
 137 0070 97070000 		la	a5,supervisorTrap
 137      83B70700 
 138 0078 93E71700 		ori	a5,a5,1
GAS LISTING /tmp/ccOIZ8iu.s 			page 5


  11:src/syscall_cpp.cpp **** }
 139              		.loc 2 11 75
 140              	#APP
 141              	# 11 "src/syscall_cpp.cpp" 1
  12:src/syscall_cpp.cpp **** 
 142              		csrw stvec, a5
 143              	# 0 "" 2
 144              		.loc 2 12 1
 145              	#NO_APP
 146 0080 03348100 		ld	s0,8(sp)
 147              		.cfi_restore 8
 148              		.cfi_def_cfa 2, 16
 149 0084 13010101 		addi	sp,sp,16
 150              		.cfi_def_cfa_offset 0
 151 0088 67800000 		jr	ra
 152              		.cfi_endproc
 153              	.LFE9:
 155              		.align	2
 156              		.globl	_ZN6ThreadC2Ev
 158              	_ZN6ThreadC2Ev:
 159              	.LFB11:
  14:src/syscall_cpp.cpp ****     //redefinicija run metode
 160              		.loc 2 14 1 is_stmt 1
 161              		.cfi_startproc
 162              	.LVL7:
 163 008c 130101FF 		addi	sp,sp,-16
 164              		.cfi_def_cfa_offset 16
 165 0090 23348100 		sd	s0,8(sp)
 166              		.cfi_offset 8, -8
 167 0094 13040101 		addi	s0,sp,16
 168              		.cfi_def_cfa 8, 0
 169              	.LBB7:
  14:src/syscall_cpp.cpp ****     //redefinicija run metode
 170              		.loc 2 14 16 is_stmt 0
 171 0098 97070000 		lla	a5,_ZTV6Thread+16
 171      93870700 
 172 00a0 2330F500 		sd	a5,0(a0)
  16:src/syscall_cpp.cpp ****     this->body = wrapper;
 173              		.loc 2 16 5 is_stmt 1
  16:src/syscall_cpp.cpp ****     this->body = wrapper;
 174              		.loc 2 16 20 is_stmt 0
 175 00a4 23340500 		sd	zero,8(a0)
  17:src/syscall_cpp.cpp ****     this->arg = this;
 176              		.loc 2 17 5 is_stmt 1
  17:src/syscall_cpp.cpp ****     this->arg = this;
 177              		.loc 2 17 16 is_stmt 0
 178 00a8 97070000 		lla	a5,_ZN6Thread7wrapperEPv
 178      93870700 
 179 00b0 2338F500 		sd	a5,16(a0)
  18:src/syscall_cpp.cpp **** }
 180              		.loc 2 18 5 is_stmt 1
  18:src/syscall_cpp.cpp **** }
 181              		.loc 2 18 15 is_stmt 0
 182 00b4 233CA500 		sd	a0,24(a0)
 183              	.LBE7:
  19:src/syscall_cpp.cpp **** 
 184              		.loc 2 19 1
GAS LISTING /tmp/ccOIZ8iu.s 			page 6


 185 00b8 03348100 		ld	s0,8(sp)
 186              		.cfi_restore 8
 187              		.cfi_def_cfa 2, 16
 188 00bc 13010101 		addi	sp,sp,16
 189              		.cfi_def_cfa_offset 0
 190 00c0 67800000 		jr	ra
 191              		.cfi_endproc
 192              	.LFE11:
 194              		.globl	_ZN6ThreadC1Ev
 195              		.set	_ZN6ThreadC1Ev,_ZN6ThreadC2Ev
 196              		.align	2
 197              		.globl	_ZN6ThreadC2EPFvPvES0_
 199              	_ZN6ThreadC2EPFvPvES0_:
 200              	.LFB14:
  21:src/syscall_cpp.cpp ****     //konstrukcija nad funkcijom neclanicom
 201              		.loc 2 21 1 is_stmt 1
 202              		.cfi_startproc
 203              	.LVL8:
 204 00c4 130101FF 		addi	sp,sp,-16
 205              		.cfi_def_cfa_offset 16
 206 00c8 23348100 		sd	s0,8(sp)
 207              		.cfi_offset 8, -8
 208 00cc 13040101 		addi	s0,sp,16
 209              		.cfi_def_cfa 8, 0
 210              	.LBB8:
  21:src/syscall_cpp.cpp ****     //konstrukcija nad funkcijom neclanicom
 211              		.loc 2 21 47 is_stmt 0
 212 00d0 97070000 		lla	a5,_ZTV6Thread+16
 212      93870700 
 213 00d8 2330F500 		sd	a5,0(a0)
  23:src/syscall_cpp.cpp ****     this->body = body;
 214              		.loc 2 23 5 is_stmt 1
  23:src/syscall_cpp.cpp ****     this->body = body;
 215              		.loc 2 23 20 is_stmt 0
 216 00dc 23340500 		sd	zero,8(a0)
  24:src/syscall_cpp.cpp ****     this->arg = arg;
 217              		.loc 2 24 5 is_stmt 1
  24:src/syscall_cpp.cpp ****     this->arg = arg;
 218              		.loc 2 24 16 is_stmt 0
 219 00e0 2338B500 		sd	a1,16(a0)
  25:src/syscall_cpp.cpp **** }
 220              		.loc 2 25 5 is_stmt 1
  25:src/syscall_cpp.cpp **** }
 221              		.loc 2 25 15 is_stmt 0
 222 00e4 233CC500 		sd	a2,24(a0)
 223              	.LBE8:
  26:src/syscall_cpp.cpp **** 
 224              		.loc 2 26 1
 225 00e8 03348100 		ld	s0,8(sp)
 226              		.cfi_restore 8
 227              		.cfi_def_cfa 2, 16
 228 00ec 13010101 		addi	sp,sp,16
 229              		.cfi_def_cfa_offset 0
 230 00f0 67800000 		jr	ra
 231              		.cfi_endproc
 232              	.LFE14:
 234              		.globl	_ZN6ThreadC1EPFvPvES0_
GAS LISTING /tmp/ccOIZ8iu.s 			page 7


 235              		.set	_ZN6ThreadC1EPFvPvES0_,_ZN6ThreadC2EPFvPvES0_
 236              		.align	2
 237              		.globl	_ZN6Thread5startEv
 239              	_ZN6Thread5startEv:
 240              	.LFB20:
  34:src/syscall_cpp.cpp ****     //pravi samu instancu niti i stavlja je u Scheduler
 241              		.loc 2 34 21 is_stmt 1
 242              		.cfi_startproc
 243              	.LVL9:
 244 00f4 130101FF 		addi	sp,sp,-16
 245              		.cfi_def_cfa_offset 16
 246 00f8 23341100 		sd	ra,8(sp)
 247 00fc 23308100 		sd	s0,0(sp)
 248              		.cfi_offset 1, -8
 249              		.cfi_offset 8, -16
 250 0100 13040101 		addi	s0,sp,16
 251              		.cfi_def_cfa 8, 0
  36:src/syscall_cpp.cpp **** }
 252              		.loc 2 36 5
  36:src/syscall_cpp.cpp **** }
 253              		.loc 2 36 25 is_stmt 0
 254 0104 03368501 		ld	a2,24(a0)
 255 0108 83350501 		ld	a1,16(a0)
 256 010c 13058500 		addi	a0,a0,8
 257              	.LVL10:
 258 0110 97000000 		call	_Z13thread_createPP3TCBPFvPvES2_@plt
 258      E7800000 
 259              	.LVL11:
  37:src/syscall_cpp.cpp **** 
 260              		.loc 2 37 1
 261 0118 83308100 		ld	ra,8(sp)
 262              		.cfi_restore 1
 263 011c 03340100 		ld	s0,0(sp)
 264              		.cfi_restore 8
 265              		.cfi_def_cfa 2, 16
 266 0120 13010101 		addi	sp,sp,16
 267              		.cfi_def_cfa_offset 0
 268 0124 67800000 		jr	ra
 269              		.cfi_endproc
 270              	.LFE20:
 272              		.align	2
 273              		.globl	_ZN6Thread4joinEv
 275              	_ZN6Thread4joinEv:
 276              	.LFB21:
  39:src/syscall_cpp.cpp ****     thread_join(myHandle);
 277              		.loc 2 39 21 is_stmt 1
 278              		.cfi_startproc
 279              	.LVL12:
 280 0128 130101FF 		addi	sp,sp,-16
 281              		.cfi_def_cfa_offset 16
 282 012c 23341100 		sd	ra,8(sp)
 283 0130 23308100 		sd	s0,0(sp)
 284              		.cfi_offset 1, -8
 285              		.cfi_offset 8, -16
 286 0134 13040101 		addi	s0,sp,16
 287              		.cfi_def_cfa 8, 0
  40:src/syscall_cpp.cpp **** }
GAS LISTING /tmp/ccOIZ8iu.s 			page 8


 288              		.loc 2 40 5
  40:src/syscall_cpp.cpp **** }
 289              		.loc 2 40 16 is_stmt 0
 290 0138 03358500 		ld	a0,8(a0)
 291              	.LVL13:
 292 013c 97000000 		call	_Z11thread_joinP3TCB@plt
 292      E7800000 
 293              	.LVL14:
  41:src/syscall_cpp.cpp **** 
 294              		.loc 2 41 1
 295 0144 83308100 		ld	ra,8(sp)
 296              		.cfi_restore 1
 297 0148 03340100 		ld	s0,0(sp)
 298              		.cfi_restore 8
 299              		.cfi_def_cfa 2, 16
 300 014c 13010101 		addi	sp,sp,16
 301              		.cfi_def_cfa_offset 0
 302 0150 67800000 		jr	ra
 303              		.cfi_endproc
 304              	.LFE21:
 306              		.align	2
 307              		.globl	_ZN6Thread8dispatchEv
 309              	_ZN6Thread8dispatchEv:
 310              	.LFB22:
  43:src/syscall_cpp.cpp ****     //sinhrona promena konteksta
 311              		.loc 2 43 25 is_stmt 1
 312              		.cfi_startproc
 313 0154 130101FF 		addi	sp,sp,-16
 314              		.cfi_def_cfa_offset 16
 315 0158 23341100 		sd	ra,8(sp)
 316 015c 23308100 		sd	s0,0(sp)
 317              		.cfi_offset 1, -8
 318              		.cfi_offset 8, -16
 319 0160 13040101 		addi	s0,sp,16
 320              		.cfi_def_cfa 8, 0
  45:src/syscall_cpp.cpp **** }
 321              		.loc 2 45 5
  45:src/syscall_cpp.cpp **** }
 322              		.loc 2 45 20 is_stmt 0
 323 0164 97000000 		call	_Z15thread_dispatchv@plt
 323      E7800000 
 324              	.LVL15:
  46:src/syscall_cpp.cpp **** 
 325              		.loc 2 46 1
 326 016c 83308100 		ld	ra,8(sp)
 327              		.cfi_restore 1
 328 0170 03340100 		ld	s0,0(sp)
 329              		.cfi_restore 8
 330              		.cfi_def_cfa 2, 16
 331 0174 13010101 		addi	sp,sp,16
 332              		.cfi_def_cfa_offset 0
 333 0178 67800000 		jr	ra
 334              		.cfi_endproc
 335              	.LFE22:
 337              		.align	2
 338              		.globl	_ZN6Thread5sleepEm
 340              	_ZN6Thread5sleepEm:
GAS LISTING /tmp/ccOIZ8iu.s 			page 9


 341              	.LFB23:
  48:src/syscall_cpp.cpp ****     return time_sleep(time);
 342              		.loc 2 48 32 is_stmt 1
 343              		.cfi_startproc
 344              	.LVL16:
 345 017c 130101FF 		addi	sp,sp,-16
 346              		.cfi_def_cfa_offset 16
 347 0180 23341100 		sd	ra,8(sp)
 348 0184 23308100 		sd	s0,0(sp)
 349              		.cfi_offset 1, -8
 350              		.cfi_offset 8, -16
 351 0188 13040101 		addi	s0,sp,16
 352              		.cfi_def_cfa 8, 0
  49:src/syscall_cpp.cpp **** }
 353              		.loc 2 49 5
  49:src/syscall_cpp.cpp **** }
 354              		.loc 2 49 22 is_stmt 0
 355 018c 97000000 		call	_Z10time_sleepm@plt
 355      E7800000 
 356              	.LVL17:
  50:src/syscall_cpp.cpp **** 
 357              		.loc 2 50 1
 358 0194 83308100 		ld	ra,8(sp)
 359              		.cfi_restore 1
 360 0198 03340100 		ld	s0,0(sp)
 361              		.cfi_restore 8
 362              		.cfi_def_cfa 2, 16
 363 019c 13010101 		addi	sp,sp,16
 364              		.cfi_def_cfa_offset 0
 365 01a0 67800000 		jr	ra
 366              		.cfi_endproc
 367              	.LFE23:
 369              		.align	2
 370              		.globl	_ZN9SemaphoreC2Ej
 372              	_ZN9SemaphoreC2Ej:
 373              	.LFB26:
  58:src/syscall_cpp.cpp ****     sem_open(&myHandle,init);
 374              		.loc 2 58 1 is_stmt 1
 375              		.cfi_startproc
 376              	.LVL18:
 377 01a4 130101FF 		addi	sp,sp,-16
 378              		.cfi_def_cfa_offset 16
 379 01a8 23341100 		sd	ra,8(sp)
 380 01ac 23308100 		sd	s0,0(sp)
 381              		.cfi_offset 1, -8
 382              		.cfi_offset 8, -16
 383 01b0 13040101 		addi	s0,sp,16
 384              		.cfi_def_cfa 8, 0
 385              	.LBB9:
  58:src/syscall_cpp.cpp ****     sem_open(&myHandle,init);
 386              		.loc 2 58 39 is_stmt 0
 387 01b4 97070000 		lla	a5,_ZTV9Semaphore+16
 387      93870700 
 388 01bc 2330F500 		sd	a5,0(a0)
  59:src/syscall_cpp.cpp **** 
 389              		.loc 2 59 5 is_stmt 1
  59:src/syscall_cpp.cpp **** 
GAS LISTING /tmp/ccOIZ8iu.s 			page 10


 390              		.loc 2 59 13 is_stmt 0
 391 01c0 13058500 		addi	a0,a0,8
 392              	.LVL19:
 393 01c4 97000000 		call	_Z8sem_openPP5MySemj@plt
 393      E7800000 
 394              	.LVL20:
 395              	.LBE9:
  61:src/syscall_cpp.cpp **** 
 396              		.loc 2 61 1
 397 01cc 83308100 		ld	ra,8(sp)
 398              		.cfi_restore 1
 399 01d0 03340100 		ld	s0,0(sp)
 400              		.cfi_restore 8
 401              		.cfi_def_cfa 2, 16
 402 01d4 13010101 		addi	sp,sp,16
 403              		.cfi_def_cfa_offset 0
 404 01d8 67800000 		jr	ra
 405              		.cfi_endproc
 406              	.LFE26:
 408              		.globl	_ZN9SemaphoreC1Ej
 409              		.set	_ZN9SemaphoreC1Ej,_ZN9SemaphoreC2Ej
 410              		.align	2
 411              		.globl	_ZN9Semaphore4waitEv
 413              	_ZN9Semaphore4waitEv:
 414              	.LFB32:
  66:src/syscall_cpp.cpp **** 
  67:src/syscall_cpp.cpp **** int Semaphore::wait() {
 415              		.loc 2 67 23 is_stmt 1
 416              		.cfi_startproc
 417              	.LVL21:
 418 01dc 130101FF 		addi	sp,sp,-16
 419              		.cfi_def_cfa_offset 16
 420 01e0 23341100 		sd	ra,8(sp)
 421 01e4 23308100 		sd	s0,0(sp)
 422              		.cfi_offset 1, -8
 423              		.cfi_offset 8, -16
 424 01e8 13040101 		addi	s0,sp,16
 425              		.cfi_def_cfa 8, 0
  68:src/syscall_cpp.cpp ****     return sem_wait(myHandle);
 426              		.loc 2 68 5
 427              		.loc 2 68 20 is_stmt 0
 428 01ec 03358500 		ld	a0,8(a0)
 429              	.LVL22:
 430 01f0 97000000 		call	_Z8sem_waitP5MySem@plt
 430      E7800000 
 431              	.LVL23:
  69:src/syscall_cpp.cpp **** }
 432              		.loc 2 69 1
 433 01f8 83308100 		ld	ra,8(sp)
 434              		.cfi_restore 1
 435 01fc 03340100 		ld	s0,0(sp)
 436              		.cfi_restore 8
 437              		.cfi_def_cfa 2, 16
 438 0200 13010101 		addi	sp,sp,16
 439              		.cfi_def_cfa_offset 0
 440 0204 67800000 		jr	ra
 441              		.cfi_endproc
GAS LISTING /tmp/ccOIZ8iu.s 			page 11


 442              	.LFE32:
 444              		.align	2
 445              		.globl	_ZN9Semaphore6signalEv
 447              	_ZN9Semaphore6signalEv:
 448              	.LFB33:
  70:src/syscall_cpp.cpp **** 
  71:src/syscall_cpp.cpp **** int Semaphore::signal() {
 449              		.loc 2 71 25 is_stmt 1
 450              		.cfi_startproc
 451              	.LVL24:
 452 0208 130101FF 		addi	sp,sp,-16
 453              		.cfi_def_cfa_offset 16
 454 020c 23341100 		sd	ra,8(sp)
 455 0210 23308100 		sd	s0,0(sp)
 456              		.cfi_offset 1, -8
 457              		.cfi_offset 8, -16
 458 0214 13040101 		addi	s0,sp,16
 459              		.cfi_def_cfa 8, 0
  72:src/syscall_cpp.cpp ****    return sem_signal(myHandle);
 460              		.loc 2 72 4
 461              		.loc 2 72 21 is_stmt 0
 462 0218 03358500 		ld	a0,8(a0)
 463              	.LVL25:
 464 021c 97000000 		call	_Z10sem_signalP5MySem@plt
 464      E7800000 
 465              	.LVL26:
  73:src/syscall_cpp.cpp **** }
 466              		.loc 2 73 1
 467 0224 83308100 		ld	ra,8(sp)
 468              		.cfi_restore 1
 469 0228 03340100 		ld	s0,0(sp)
 470              		.cfi_restore 8
 471              		.cfi_def_cfa 2, 16
 472 022c 13010101 		addi	sp,sp,16
 473              		.cfi_def_cfa_offset 0
 474 0230 67800000 		jr	ra
 475              		.cfi_endproc
 476              	.LFE33:
 478              		.align	2
 479              		.globl	_ZN7Console4getcEv
 481              	_ZN7Console4getcEv:
 482              	.LFB34:
  74:src/syscall_cpp.cpp **** 
  75:src/syscall_cpp.cpp **** 
  76:src/syscall_cpp.cpp **** /*
  77:src/syscall_cpp.cpp **** void PeriodicThread::terminate() {
  78:src/syscall_cpp.cpp **** 
  79:src/syscall_cpp.cpp **** }
  80:src/syscall_cpp.cpp **** 
  81:src/syscall_cpp.cpp **** PeriodicThread::PeriodicThread(time_t period) {
  82:src/syscall_cpp.cpp **** 
  83:src/syscall_cpp.cpp **** }
  84:src/syscall_cpp.cpp **** */
  85:src/syscall_cpp.cpp **** char Console::getc() {
 483              		.loc 2 85 22 is_stmt 1
 484              		.cfi_startproc
 485 0234 130101FF 		addi	sp,sp,-16
GAS LISTING /tmp/ccOIZ8iu.s 			page 12


 486              		.cfi_def_cfa_offset 16
 487 0238 23341100 		sd	ra,8(sp)
 488 023c 23308100 		sd	s0,0(sp)
 489              		.cfi_offset 1, -8
 490              		.cfi_offset 8, -16
 491 0240 13040101 		addi	s0,sp,16
 492              		.cfi_def_cfa 8, 0
  86:src/syscall_cpp.cpp ****     return ::getc();
 493              		.loc 2 86 5
 494              		.loc 2 86 18 is_stmt 0
 495 0244 97000000 		call	_Z4getcv@plt
 495      E7800000 
 496              	.LVL27:
  87:src/syscall_cpp.cpp **** }
 497              		.loc 2 87 1
 498 024c 83308100 		ld	ra,8(sp)
 499              		.cfi_restore 1
 500 0250 03340100 		ld	s0,0(sp)
 501              		.cfi_restore 8
 502              		.cfi_def_cfa 2, 16
 503 0254 13010101 		addi	sp,sp,16
 504              		.cfi_def_cfa_offset 0
 505 0258 67800000 		jr	ra
 506              		.cfi_endproc
 507              	.LFE34:
 509              		.align	2
 510              		.globl	_ZN7Console4putcEc
 512              	_ZN7Console4putcEc:
 513              	.LFB35:
  88:src/syscall_cpp.cpp **** 
  89:src/syscall_cpp.cpp **** void Console::putc(char c) {
 514              		.loc 2 89 28 is_stmt 1
 515              		.cfi_startproc
 516              	.LVL28:
 517 025c 130101FF 		addi	sp,sp,-16
 518              		.cfi_def_cfa_offset 16
 519 0260 23341100 		sd	ra,8(sp)
 520 0264 23308100 		sd	s0,0(sp)
 521              		.cfi_offset 1, -8
 522              		.cfi_offset 8, -16
 523 0268 13040101 		addi	s0,sp,16
 524              		.cfi_def_cfa 8, 0
  90:src/syscall_cpp.cpp ****     ::putc(c);
 525              		.loc 2 90 5
 526              		.loc 2 90 11 is_stmt 0
 527 026c 97000000 		call	_Z4putcc@plt
 527      E7800000 
 528              	.LVL29:
  91:src/syscall_cpp.cpp **** }
 529              		.loc 2 91 1
 530 0274 83308100 		ld	ra,8(sp)
 531              		.cfi_restore 1
 532 0278 03340100 		ld	s0,0(sp)
 533              		.cfi_restore 8
 534              		.cfi_def_cfa 2, 16
 535 027c 13010101 		addi	sp,sp,16
 536              		.cfi_def_cfa_offset 0
GAS LISTING /tmp/ccOIZ8iu.s 			page 13


 537 0280 67800000 		jr	ra
 538              		.cfi_endproc
 539              	.LFE35:
 541              		.align	2
 542              		.globl	_Znwm
 544              	_Znwm:
 545              	.LFB36:
  92:src/syscall_cpp.cpp **** 
  93:src/syscall_cpp.cpp **** void *operator new(size_t size) {
 546              		.loc 2 93 33 is_stmt 1
 547              		.cfi_startproc
 548              	.LVL30:
 549 0284 130101FF 		addi	sp,sp,-16
 550              		.cfi_def_cfa_offset 16
 551 0288 23341100 		sd	ra,8(sp)
 552 028c 23308100 		sd	s0,0(sp)
 553              		.cfi_offset 1, -8
 554              		.cfi_offset 8, -16
 555 0290 13040101 		addi	s0,sp,16
 556              		.cfi_def_cfa 8, 0
  94:src/syscall_cpp.cpp ****     return mem_alloc(size);
 557              		.loc 2 94 5
 558              		.loc 2 94 21 is_stmt 0
 559 0294 97000000 		call	_Z9mem_allocm@plt
 559      E7800000 
 560              	.LVL31:
  95:src/syscall_cpp.cpp **** }
 561              		.loc 2 95 1
 562 029c 83308100 		ld	ra,8(sp)
 563              		.cfi_restore 1
 564 02a0 03340100 		ld	s0,0(sp)
 565              		.cfi_restore 8
 566              		.cfi_def_cfa 2, 16
 567 02a4 13010101 		addi	sp,sp,16
 568              		.cfi_def_cfa_offset 0
 569 02a8 67800000 		jr	ra
 570              		.cfi_endproc
 571              	.LFE36:
 573              		.align	2
 574              		.globl	_Znam
 576              	_Znam:
 577              	.LFB37:
  96:src/syscall_cpp.cpp **** void *operator new[](size_t size) {
 578              		.loc 2 96 35 is_stmt 1
 579              		.cfi_startproc
 580              	.LVL32:
 581 02ac 130101FF 		addi	sp,sp,-16
 582              		.cfi_def_cfa_offset 16
 583 02b0 23341100 		sd	ra,8(sp)
 584 02b4 23308100 		sd	s0,0(sp)
 585              		.cfi_offset 1, -8
 586              		.cfi_offset 8, -16
 587 02b8 13040101 		addi	s0,sp,16
 588              		.cfi_def_cfa 8, 0
  97:src/syscall_cpp.cpp ****     return mem_alloc(size);
 589              		.loc 2 97 5
 590              		.loc 2 97 21 is_stmt 0
GAS LISTING /tmp/ccOIZ8iu.s 			page 14


 591 02bc 97000000 		call	_Z9mem_allocm@plt
 591      E7800000 
 592              	.LVL33:
  98:src/syscall_cpp.cpp **** }
 593              		.loc 2 98 1
 594 02c4 83308100 		ld	ra,8(sp)
 595              		.cfi_restore 1
 596 02c8 03340100 		ld	s0,0(sp)
 597              		.cfi_restore 8
 598              		.cfi_def_cfa 2, 16
 599 02cc 13010101 		addi	sp,sp,16
 600              		.cfi_def_cfa_offset 0
 601 02d0 67800000 		jr	ra
 602              		.cfi_endproc
 603              	.LFE37:
 605              		.align	2
 606              		.globl	_ZdlPv
 608              	_ZdlPv:
 609              	.LFB38:
  99:src/syscall_cpp.cpp **** 
 100:src/syscall_cpp.cpp **** void operator delete(void *ptr) {
 610              		.loc 2 100 33 is_stmt 1
 611              		.cfi_startproc
 612              	.LVL34:
 613 02d4 130101FF 		addi	sp,sp,-16
 614              		.cfi_def_cfa_offset 16
 615 02d8 23341100 		sd	ra,8(sp)
 616 02dc 23308100 		sd	s0,0(sp)
 617              		.cfi_offset 1, -8
 618              		.cfi_offset 8, -16
 619 02e0 13040101 		addi	s0,sp,16
 620              		.cfi_def_cfa 8, 0
 101:src/syscall_cpp.cpp ****     mem_free(ptr);
 621              		.loc 2 101 5
 622              		.loc 2 101 13 is_stmt 0
 623 02e4 97000000 		call	_Z8mem_freePv@plt
 623      E7800000 
 624              	.LVL35:
 102:src/syscall_cpp.cpp **** }
 625              		.loc 2 102 1
 626 02ec 83308100 		ld	ra,8(sp)
 627              		.cfi_restore 1
 628 02f0 03340100 		ld	s0,0(sp)
 629              		.cfi_restore 8
 630              		.cfi_def_cfa 2, 16
 631 02f4 13010101 		addi	sp,sp,16
 632              		.cfi_def_cfa_offset 0
 633 02f8 67800000 		jr	ra
 634              		.cfi_endproc
 635              	.LFE38:
 637              		.align	2
 638              		.globl	_ZN6ThreadD2Ev
 640              	_ZN6ThreadD2Ev:
 641              	.LFB17:
  28:src/syscall_cpp.cpp ****     //ceka da se ta nit - myHandle zavrsi pa je brise
 642              		.loc 2 28 1 is_stmt 1
 643              		.cfi_startproc
GAS LISTING /tmp/ccOIZ8iu.s 			page 15


 644              		.cfi_personality 0x9b,DW.ref.__gxx_personality_v0
 645              		.cfi_lsda 0x1b,.LLSDA17
 646              	.LVL36:
 647 02fc 130101FE 		addi	sp,sp,-32
 648              		.cfi_def_cfa_offset 32
 649 0300 233C1100 		sd	ra,24(sp)
 650 0304 23388100 		sd	s0,16(sp)
 651 0308 23349100 		sd	s1,8(sp)
 652              		.cfi_offset 1, -8
 653              		.cfi_offset 8, -16
 654              		.cfi_offset 9, -24
 655 030c 13040102 		addi	s0,sp,32
 656              		.cfi_def_cfa 8, 0
 657 0310 93040500 		mv	s1,a0
 658              	.LBB10:
  28:src/syscall_cpp.cpp ****     //ceka da se ta nit - myHandle zavrsi pa je brise
 659              		.loc 2 28 17 is_stmt 0
 660 0314 97070000 		lla	a5,_ZTV6Thread+16
 660      93870700 
 661 031c 2330F500 		sd	a5,0(a0)
  30:src/syscall_cpp.cpp ****     delete myHandle;
 662              		.loc 2 30 5 is_stmt 1
  30:src/syscall_cpp.cpp ****     delete myHandle;
 663              		.loc 2 30 9 is_stmt 0
 664 0320 97000000 		call	_ZN6Thread4joinEv
 664      E7800000 
 665              	.LVL37:
  31:src/syscall_cpp.cpp **** }
 666              		.loc 2 31 5 is_stmt 1
  31:src/syscall_cpp.cpp **** }
 667              		.loc 2 31 12 is_stmt 0
 668 0328 83B48400 		ld	s1,8(s1)
 669              	.LVL38:
  31:src/syscall_cpp.cpp **** }
 670              		.loc 2 31 20
 671 032c 63820402 		beqz	s1,.L37
 672              	.LVL39:
 673              	.LBB11:
 674              	.LBB12:
 675              		.file 3 "src/../h/TCB.hpp"
   1:src/../h/TCB.hpp **** 
   2:src/../h/TCB.hpp **** #ifndef _Thread
   3:src/../h/TCB.hpp **** #define _Thread
   4:src/../h/TCB.hpp **** #include "../lib/hw.h"
   5:src/../h/TCB.hpp **** #include "MemoryAllocator.hpp"
   6:src/../h/TCB.hpp **** 
   7:src/../h/TCB.hpp **** 
   8:src/../h/TCB.hpp **** class TCB{
   9:src/../h/TCB.hpp **** public:
  10:src/../h/TCB.hpp ****     ~TCB(){
  11:src/../h/TCB.hpp ****         MemoryAllocator::getInstance()._mem_free(stack);
 676              		.loc 3 11 9 is_stmt 1
 677              		.loc 3 11 38 is_stmt 0
 678 0330 97000000 		call	_ZN15MemoryAllocator11getInstanceEv@plt
 678      E7800000 
 679              	.LVL40:
 680              		.loc 3 11 49
GAS LISTING /tmp/ccOIZ8iu.s 			page 16


 681 0338 83B58400 		ld	a1,8(s1)
 682 033c 97000000 		call	_ZN15MemoryAllocator9_mem_freeEPv@plt
 682      E7800000 
 683              	.LVL41:
 684              	.LBE12:
 685              	.LBE11:
  31:src/syscall_cpp.cpp **** }
 686              		.loc 2 31 12
 687 0344 13850400 		mv	a0,s1
 688 0348 97000000 		call	_ZdlPv
 688      E7800000 
 689              	.LVL42:
 690              	.L37:
 691              	.LBE10:
  32:src/syscall_cpp.cpp **** 
 692              		.loc 2 32 1
 693 0350 83308101 		ld	ra,24(sp)
 694              		.cfi_restore 1
 695 0354 03340101 		ld	s0,16(sp)
 696              		.cfi_restore 8
 697              		.cfi_def_cfa 2, 32
 698 0358 83348100 		ld	s1,8(sp)
 699              		.cfi_restore 9
 700 035c 13010102 		addi	sp,sp,32
 701              		.cfi_def_cfa_offset 0
 702 0360 67800000 		jr	ra
 703              		.cfi_endproc
 704              	.LFE17:
 705              		.section	.gcc_except_table
 706              	.LLSDA17:
 707 0004 FF       		.byte	0xff
 708 0005 FF       		.byte	0xff
 709 0006 03       		.byte	0x3
 710 0007 00       		.byte	0
 711              		.text
 713              		.globl	_ZN6ThreadD1Ev
 714              		.set	_ZN6ThreadD1Ev,_ZN6ThreadD2Ev
 715              		.align	2
 716              		.globl	_ZN6ThreadD0Ev
 718              	_ZN6ThreadD0Ev:
 719              	.LFB19:
  28:src/syscall_cpp.cpp ****     //ceka da se ta nit - myHandle zavrsi pa je brise
 720              		.loc 2 28 1 is_stmt 1
 721              		.cfi_startproc
 722              	.LVL43:
 723 0364 130101FE 		addi	sp,sp,-32
 724              		.cfi_def_cfa_offset 32
 725 0368 233C1100 		sd	ra,24(sp)
 726 036c 23388100 		sd	s0,16(sp)
 727 0370 23349100 		sd	s1,8(sp)
 728              		.cfi_offset 1, -8
 729              		.cfi_offset 8, -16
 730              		.cfi_offset 9, -24
 731 0374 13040102 		addi	s0,sp,32
 732              		.cfi_def_cfa 8, 0
 733 0378 93040500 		mv	s1,a0
  32:src/syscall_cpp.cpp **** 
GAS LISTING /tmp/ccOIZ8iu.s 			page 17


 734              		.loc 2 32 1 is_stmt 0
 735 037c 97000000 		call	_ZN6ThreadD1Ev
 735      E7800000 
 736              	.LVL44:
 737 0384 13850400 		mv	a0,s1
 738 0388 97000000 		call	_ZdlPv
 738      E7800000 
 739              	.LVL45:
 740 0390 83308101 		ld	ra,24(sp)
 741              		.cfi_restore 1
 742 0394 03340101 		ld	s0,16(sp)
 743              		.cfi_restore 8
 744              		.cfi_def_cfa 2, 32
 745 0398 83348100 		ld	s1,8(sp)
 746              		.cfi_restore 9
 747              	.LVL46:
 748 039c 13010102 		addi	sp,sp,32
 749              		.cfi_def_cfa_offset 0
 750 03a0 67800000 		jr	ra
 751              		.cfi_endproc
 752              	.LFE19:
 754              		.align	2
 755              		.globl	_ZN9SemaphoreD0Ev
 757              	_ZN9SemaphoreD0Ev:
 758              	.LFB31:
  63:src/syscall_cpp.cpp ****     sem_close(myHandle);
 759              		.loc 2 63 1 is_stmt 1
 760              		.cfi_startproc
 761              	.LVL47:
 762 03a4 130101FE 		addi	sp,sp,-32
 763              		.cfi_def_cfa_offset 32
 764 03a8 233C1100 		sd	ra,24(sp)
 765 03ac 23388100 		sd	s0,16(sp)
 766 03b0 23349100 		sd	s1,8(sp)
 767              		.cfi_offset 1, -8
 768              		.cfi_offset 8, -16
 769              		.cfi_offset 9, -24
 770 03b4 13040102 		addi	s0,sp,32
 771              		.cfi_def_cfa 8, 0
 772 03b8 93040500 		mv	s1,a0
  65:src/syscall_cpp.cpp **** 
 773              		.loc 2 65 1 is_stmt 0
 774 03bc 97000000 		call	_ZN9SemaphoreD1Ev
 774      E7800000 
 775              	.LVL48:
 776 03c4 13850400 		mv	a0,s1
 777 03c8 97000000 		call	_ZdlPv
 777      E7800000 
 778              	.LVL49:
 779 03d0 83308101 		ld	ra,24(sp)
 780              		.cfi_restore 1
 781 03d4 03340101 		ld	s0,16(sp)
 782              		.cfi_restore 8
 783              		.cfi_def_cfa 2, 32
 784 03d8 83348100 		ld	s1,8(sp)
 785              		.cfi_restore 9
 786              	.LVL50:
GAS LISTING /tmp/ccOIZ8iu.s 			page 18


 787 03dc 13010102 		addi	sp,sp,32
 788              		.cfi_def_cfa_offset 0
 789 03e0 67800000 		jr	ra
 790              		.cfi_endproc
 791              	.LFE31:
 793              		.align	2
 794              		.globl	_ZdaPv
 796              	_ZdaPv:
 797              	.LFB39:
 103:src/syscall_cpp.cpp **** void operator delete[](void *ptr) {
 798              		.loc 2 103 35 is_stmt 1
 799              		.cfi_startproc
 800              	.LVL51:
 801 03e4 130101FF 		addi	sp,sp,-16
 802              		.cfi_def_cfa_offset 16
 803 03e8 23341100 		sd	ra,8(sp)
 804 03ec 23308100 		sd	s0,0(sp)
 805              		.cfi_offset 1, -8
 806              		.cfi_offset 8, -16
 807 03f0 13040101 		addi	s0,sp,16
 808              		.cfi_def_cfa 8, 0
 104:src/syscall_cpp.cpp ****     mem_free(ptr);
 809              		.loc 2 104 5
 810              		.loc 2 104 13 is_stmt 0
 811 03f4 97000000 		call	_Z8mem_freePv@plt
 811      E7800000 
 812              	.LVL52:
 105:src/syscall_cpp.cpp **** }
 813              		.loc 2 105 1
 814 03fc 83308100 		ld	ra,8(sp)
 815              		.cfi_restore 1
 816 0400 03340100 		ld	s0,0(sp)
 817              		.cfi_restore 8
 818              		.cfi_def_cfa 2, 16
 819 0404 13010101 		addi	sp,sp,16
 820              		.cfi_def_cfa_offset 0
 821 0408 67800000 		jr	ra
 822              		.cfi_endproc
 823              	.LFE39:
 825              		.weak	_ZTV6Thread
 826              		.section	.data.rel.ro.local._ZTV6Thread,"awG",@progbits,_ZTV6Thread,comdat
 827              		.align	3
 830              	_ZTV6Thread:
 831 0000 00000000 		.dword	0
 831      00000000 
 832 0008 00000000 		.dword	0
 832      00000000 
 833 0010 00000000 		.dword	_ZN6ThreadD1Ev
 833      00000000 
 834 0018 00000000 		.dword	_ZN6ThreadD0Ev
 834      00000000 
 835 0020 00000000 		.dword	_ZN6Thread3runEv
 835      00000000 
 836              		.weak	_ZTV9Semaphore
 837              		.section	.data.rel.ro.local._ZTV9Semaphore,"awG",@progbits,_ZTV9Semaphore,comdat
 838              		.align	3
 841              	_ZTV9Semaphore:
GAS LISTING /tmp/ccOIZ8iu.s 			page 19


 842 0000 00000000 		.dword	0
 842      00000000 
 843 0008 00000000 		.dword	0
 843      00000000 
 844 0010 00000000 		.dword	_ZN9SemaphoreD1Ev
 844      00000000 
 845 0018 00000000 		.dword	_ZN9SemaphoreD0Ev
 845      00000000 
 846              		.text
 847              	.Letext0:
 848              		.file 4 "src/../h/../lib/hw.h"
 849              		.file 5 "src/../h/MemoryAllocator.hpp"
 850              		.file 6 "src/../h/MySem.hpp"
 851              		.file 7 "src/../h/syscall_c.h"
 4261              		.align	3
 4264              	DW.ref.__gxx_personality_v0:
 4265 0000 00000000 		.dword	__gxx_personality_v0
 4265      00000000 
 4266              		.ident	"GCC: (Ubuntu 9.4.0-1ubuntu1~20.04) 9.4.0"
 4267              		.section	.note.GNU-stack,"",@progbits
GAS LISTING /tmp/ccOIZ8iu.s 			page 20


DEFINED SYMBOLS
                            *ABS*:0000000000000000 syscall_cpp.cpp
     /tmp/ccOIZ8iu.s:10     .text._ZN6Thread3runEv:0000000000000000 _ZN6Thread3runEv
     /tmp/ccOIZ8iu.s:14     .text._ZN6Thread3runEv:0000000000000000 .L0 
     /tmp/ccOIZ8iu.s:16     .text._ZN6Thread3runEv:0000000000000000 .L0 
     /tmp/ccOIZ8iu.s:17     .text._ZN6Thread3runEv:0000000000000004 .L0 
     /tmp/ccOIZ8iu.s:19     .text._ZN6Thread3runEv:0000000000000008 .L0 
     /tmp/ccOIZ8iu.s:21     .text._ZN6Thread3runEv:000000000000000c .L0 
     /tmp/ccOIZ8iu.s:23     .text._ZN6Thread3runEv:000000000000000c .L0 
     /tmp/ccOIZ8iu.s:24     .text._ZN6Thread3runEv:0000000000000010 .L0 
     /tmp/ccOIZ8iu.s:25     .text._ZN6Thread3runEv:0000000000000010 .L0 
     /tmp/ccOIZ8iu.s:27     .text._ZN6Thread3runEv:0000000000000014 .L0 
     /tmp/ccOIZ8iu.s:29     .text._ZN6Thread3runEv:0000000000000018 .L0 
     /tmp/ccOIZ8iu.s:36     .text:0000000000000000 _ZN6Thread7wrapperEPv
     /tmp/ccOIZ8iu.s:40     .text:0000000000000000 .L0 
     /tmp/ccOIZ8iu.s:42     .text:0000000000000000 .L0 
     /tmp/ccOIZ8iu.s:43     .text:0000000000000004 .L0 
     /tmp/ccOIZ8iu.s:46     .text:000000000000000c .L0 
     /tmp/ccOIZ8iu.s:47     .text:000000000000000c .L0 
     /tmp/ccOIZ8iu.s:49     .text:0000000000000010 .L0 
     /tmp/ccOIZ8iu.s:52     .text:0000000000000010 .L0 
     /tmp/ccOIZ8iu.s:53     .text:0000000000000010 .L0 
     /tmp/ccOIZ8iu.s:54     .text:0000000000000010 .L0 
     /tmp/ccOIZ8iu.s:57     .text:0000000000000018 .L0 
     /tmp/ccOIZ8iu.s:60     .text:000000000000001c .L0 
     /tmp/ccOIZ8iu.s:61     .text:0000000000000020 .L0 
     /tmp/ccOIZ8iu.s:63     .text:0000000000000024 .L0 
     /tmp/ccOIZ8iu.s:64     .text:0000000000000024 .L0 
     /tmp/ccOIZ8iu.s:66     .text:0000000000000028 .L0 
     /tmp/ccOIZ8iu.s:68     .text:000000000000002c .L0 
     /tmp/ccOIZ8iu.s:74     .text:000000000000002c _ZN9SemaphoreD2Ev
     /tmp/ccOIZ8iu.s:77     .text:000000000000002c .L0 
     /tmp/ccOIZ8iu.s:4264   .data.rel.local.DW.ref.__gxx_personality_v0:0000000000000000 DW.ref.__gxx_personality_v0
     /tmp/ccOIZ8iu.s:81     .text:000000000000002c .L0 
     /tmp/ccOIZ8iu.s:82     .text:0000000000000030 .L0 
     /tmp/ccOIZ8iu.s:85     .text:0000000000000038 .L0 
     /tmp/ccOIZ8iu.s:86     .text:0000000000000038 .L0 
     /tmp/ccOIZ8iu.s:88     .text:000000000000003c .L0 
     /tmp/ccOIZ8iu.s:841    .data.rel.ro.local._ZTV9Semaphore:0000000000000000 _ZTV9Semaphore
     /tmp/ccOIZ8iu.s:91     .text:000000000000003c .L0 
     /tmp/ccOIZ8iu.s:94     .text:0000000000000048 .L0 
     /tmp/ccOIZ8iu.s:95     .text:0000000000000048 .L0 
     /tmp/ccOIZ8iu.s:101    .text:0000000000000054 .L0 
     /tmp/ccOIZ8iu.s:102    .text:0000000000000058 .L0 
     /tmp/ccOIZ8iu.s:104    .text:000000000000005c .L0 
     /tmp/ccOIZ8iu.s:105    .text:000000000000005c .L0 
     /tmp/ccOIZ8iu.s:107    .text:0000000000000060 .L0 
     /tmp/ccOIZ8iu.s:109    .text:0000000000000064 .L0 
     /tmp/ccOIZ8iu.s:74     .text:000000000000002c _ZN9SemaphoreD1Ev
     /tmp/ccOIZ8iu.s:125    .text:0000000000000064 _Z10vectorModev
     /tmp/ccOIZ8iu.s:128    .text:0000000000000064 .L0 
     /tmp/ccOIZ8iu.s:129    .text:0000000000000064 .L0 
     /tmp/ccOIZ8iu.s:130    .text:0000000000000068 .L0 
     /tmp/ccOIZ8iu.s:132    .text:000000000000006c .L0 
     /tmp/ccOIZ8iu.s:134    .text:0000000000000070 .L0 
     /tmp/ccOIZ8iu.s:136    .text:0000000000000070 .L0 
     /tmp/ccOIZ8iu.s:137    .text:0000000000000070 .L0 
GAS LISTING /tmp/ccOIZ8iu.s 			page 21


 src/syscall_cpp.cpp:11     .text:000000000000007c .L0 
     /tmp/ccOIZ8iu.s:146    .text:0000000000000080 .L0 
     /tmp/ccOIZ8iu.s:147    .text:0000000000000084 .L0 
     /tmp/ccOIZ8iu.s:148    .text:0000000000000084 .L0 
     /tmp/ccOIZ8iu.s:150    .text:0000000000000088 .L0 
     /tmp/ccOIZ8iu.s:152    .text:000000000000008c .L0 
     /tmp/ccOIZ8iu.s:158    .text:000000000000008c _ZN6ThreadC2Ev
     /tmp/ccOIZ8iu.s:161    .text:000000000000008c .L0 
     /tmp/ccOIZ8iu.s:163    .text:000000000000008c .L0 
     /tmp/ccOIZ8iu.s:164    .text:0000000000000090 .L0 
     /tmp/ccOIZ8iu.s:166    .text:0000000000000094 .L0 
     /tmp/ccOIZ8iu.s:168    .text:0000000000000098 .L0 
     /tmp/ccOIZ8iu.s:830    .data.rel.ro.local._ZTV6Thread:0000000000000000 _ZTV6Thread
     /tmp/ccOIZ8iu.s:171    .text:0000000000000098 .L0 
     /tmp/ccOIZ8iu.s:174    .text:00000000000000a4 .L0 
     /tmp/ccOIZ8iu.s:175    .text:00000000000000a4 .L0 
     /tmp/ccOIZ8iu.s:177    .text:00000000000000a8 .L0 
     /tmp/ccOIZ8iu.s:178    .text:00000000000000a8 .L0 
     /tmp/ccOIZ8iu.s:181    .text:00000000000000b4 .L0 
     /tmp/ccOIZ8iu.s:182    .text:00000000000000b4 .L0 
     /tmp/ccOIZ8iu.s:185    .text:00000000000000b8 .L0 
     /tmp/ccOIZ8iu.s:186    .text:00000000000000bc .L0 
     /tmp/ccOIZ8iu.s:187    .text:00000000000000bc .L0 
     /tmp/ccOIZ8iu.s:189    .text:00000000000000c0 .L0 
     /tmp/ccOIZ8iu.s:191    .text:00000000000000c4 .L0 
     /tmp/ccOIZ8iu.s:158    .text:000000000000008c _ZN6ThreadC1Ev
     /tmp/ccOIZ8iu.s:199    .text:00000000000000c4 _ZN6ThreadC2EPFvPvES0_
     /tmp/ccOIZ8iu.s:202    .text:00000000000000c4 .L0 
     /tmp/ccOIZ8iu.s:204    .text:00000000000000c4 .L0 
     /tmp/ccOIZ8iu.s:205    .text:00000000000000c8 .L0 
     /tmp/ccOIZ8iu.s:207    .text:00000000000000cc .L0 
     /tmp/ccOIZ8iu.s:209    .text:00000000000000d0 .L0 
     /tmp/ccOIZ8iu.s:212    .text:00000000000000d0 .L0 
     /tmp/ccOIZ8iu.s:215    .text:00000000000000dc .L0 
     /tmp/ccOIZ8iu.s:216    .text:00000000000000dc .L0 
     /tmp/ccOIZ8iu.s:218    .text:00000000000000e0 .L0 
     /tmp/ccOIZ8iu.s:219    .text:00000000000000e0 .L0 
     /tmp/ccOIZ8iu.s:221    .text:00000000000000e4 .L0 
     /tmp/ccOIZ8iu.s:222    .text:00000000000000e4 .L0 
     /tmp/ccOIZ8iu.s:225    .text:00000000000000e8 .L0 
     /tmp/ccOIZ8iu.s:226    .text:00000000000000ec .L0 
     /tmp/ccOIZ8iu.s:227    .text:00000000000000ec .L0 
     /tmp/ccOIZ8iu.s:229    .text:00000000000000f0 .L0 
     /tmp/ccOIZ8iu.s:231    .text:00000000000000f4 .L0 
     /tmp/ccOIZ8iu.s:199    .text:00000000000000c4 _ZN6ThreadC1EPFvPvES0_
     /tmp/ccOIZ8iu.s:239    .text:00000000000000f4 _ZN6Thread5startEv
     /tmp/ccOIZ8iu.s:242    .text:00000000000000f4 .L0 
     /tmp/ccOIZ8iu.s:244    .text:00000000000000f4 .L0 
     /tmp/ccOIZ8iu.s:245    .text:00000000000000f8 .L0 
     /tmp/ccOIZ8iu.s:248    .text:0000000000000100 .L0 
     /tmp/ccOIZ8iu.s:249    .text:0000000000000100 .L0 
     /tmp/ccOIZ8iu.s:251    .text:0000000000000104 .L0 
     /tmp/ccOIZ8iu.s:253    .text:0000000000000104 .L0 
     /tmp/ccOIZ8iu.s:254    .text:0000000000000104 .L0 
     /tmp/ccOIZ8iu.s:261    .text:0000000000000118 .L0 
     /tmp/ccOIZ8iu.s:262    .text:000000000000011c .L0 
     /tmp/ccOIZ8iu.s:264    .text:0000000000000120 .L0 
GAS LISTING /tmp/ccOIZ8iu.s 			page 22


     /tmp/ccOIZ8iu.s:265    .text:0000000000000120 .L0 
     /tmp/ccOIZ8iu.s:267    .text:0000000000000124 .L0 
     /tmp/ccOIZ8iu.s:269    .text:0000000000000128 .L0 
     /tmp/ccOIZ8iu.s:275    .text:0000000000000128 _ZN6Thread4joinEv
     /tmp/ccOIZ8iu.s:278    .text:0000000000000128 .L0 
     /tmp/ccOIZ8iu.s:280    .text:0000000000000128 .L0 
     /tmp/ccOIZ8iu.s:281    .text:000000000000012c .L0 
     /tmp/ccOIZ8iu.s:284    .text:0000000000000134 .L0 
     /tmp/ccOIZ8iu.s:285    .text:0000000000000134 .L0 
     /tmp/ccOIZ8iu.s:287    .text:0000000000000138 .L0 
     /tmp/ccOIZ8iu.s:289    .text:0000000000000138 .L0 
     /tmp/ccOIZ8iu.s:290    .text:0000000000000138 .L0 
     /tmp/ccOIZ8iu.s:295    .text:0000000000000144 .L0 
     /tmp/ccOIZ8iu.s:296    .text:0000000000000148 .L0 
     /tmp/ccOIZ8iu.s:298    .text:000000000000014c .L0 
     /tmp/ccOIZ8iu.s:299    .text:000000000000014c .L0 
     /tmp/ccOIZ8iu.s:301    .text:0000000000000150 .L0 
     /tmp/ccOIZ8iu.s:303    .text:0000000000000154 .L0 
     /tmp/ccOIZ8iu.s:309    .text:0000000000000154 _ZN6Thread8dispatchEv
     /tmp/ccOIZ8iu.s:312    .text:0000000000000154 .L0 
     /tmp/ccOIZ8iu.s:313    .text:0000000000000154 .L0 
     /tmp/ccOIZ8iu.s:314    .text:0000000000000158 .L0 
     /tmp/ccOIZ8iu.s:317    .text:0000000000000160 .L0 
     /tmp/ccOIZ8iu.s:318    .text:0000000000000160 .L0 
     /tmp/ccOIZ8iu.s:320    .text:0000000000000164 .L0 
     /tmp/ccOIZ8iu.s:322    .text:0000000000000164 .L0 
     /tmp/ccOIZ8iu.s:323    .text:0000000000000164 .L0 
     /tmp/ccOIZ8iu.s:326    .text:000000000000016c .L0 
     /tmp/ccOIZ8iu.s:327    .text:0000000000000170 .L0 
     /tmp/ccOIZ8iu.s:329    .text:0000000000000174 .L0 
     /tmp/ccOIZ8iu.s:330    .text:0000000000000174 .L0 
     /tmp/ccOIZ8iu.s:332    .text:0000000000000178 .L0 
     /tmp/ccOIZ8iu.s:334    .text:000000000000017c .L0 
     /tmp/ccOIZ8iu.s:340    .text:000000000000017c _ZN6Thread5sleepEm
     /tmp/ccOIZ8iu.s:343    .text:000000000000017c .L0 
     /tmp/ccOIZ8iu.s:345    .text:000000000000017c .L0 
     /tmp/ccOIZ8iu.s:346    .text:0000000000000180 .L0 
     /tmp/ccOIZ8iu.s:349    .text:0000000000000188 .L0 
     /tmp/ccOIZ8iu.s:350    .text:0000000000000188 .L0 
     /tmp/ccOIZ8iu.s:352    .text:000000000000018c .L0 
     /tmp/ccOIZ8iu.s:354    .text:000000000000018c .L0 
     /tmp/ccOIZ8iu.s:355    .text:000000000000018c .L0 
     /tmp/ccOIZ8iu.s:358    .text:0000000000000194 .L0 
     /tmp/ccOIZ8iu.s:359    .text:0000000000000198 .L0 
     /tmp/ccOIZ8iu.s:361    .text:000000000000019c .L0 
     /tmp/ccOIZ8iu.s:362    .text:000000000000019c .L0 
     /tmp/ccOIZ8iu.s:364    .text:00000000000001a0 .L0 
     /tmp/ccOIZ8iu.s:366    .text:00000000000001a4 .L0 
     /tmp/ccOIZ8iu.s:372    .text:00000000000001a4 _ZN9SemaphoreC2Ej
     /tmp/ccOIZ8iu.s:375    .text:00000000000001a4 .L0 
     /tmp/ccOIZ8iu.s:377    .text:00000000000001a4 .L0 
     /tmp/ccOIZ8iu.s:378    .text:00000000000001a8 .L0 
     /tmp/ccOIZ8iu.s:381    .text:00000000000001b0 .L0 
     /tmp/ccOIZ8iu.s:382    .text:00000000000001b0 .L0 
     /tmp/ccOIZ8iu.s:384    .text:00000000000001b4 .L0 
     /tmp/ccOIZ8iu.s:387    .text:00000000000001b4 .L0 
     /tmp/ccOIZ8iu.s:390    .text:00000000000001c0 .L0 
GAS LISTING /tmp/ccOIZ8iu.s 			page 23


     /tmp/ccOIZ8iu.s:391    .text:00000000000001c0 .L0 
     /tmp/ccOIZ8iu.s:397    .text:00000000000001cc .L0 
     /tmp/ccOIZ8iu.s:398    .text:00000000000001d0 .L0 
     /tmp/ccOIZ8iu.s:400    .text:00000000000001d4 .L0 
     /tmp/ccOIZ8iu.s:401    .text:00000000000001d4 .L0 
     /tmp/ccOIZ8iu.s:403    .text:00000000000001d8 .L0 
     /tmp/ccOIZ8iu.s:405    .text:00000000000001dc .L0 
     /tmp/ccOIZ8iu.s:372    .text:00000000000001a4 _ZN9SemaphoreC1Ej
     /tmp/ccOIZ8iu.s:413    .text:00000000000001dc _ZN9Semaphore4waitEv
     /tmp/ccOIZ8iu.s:416    .text:00000000000001dc .L0 
     /tmp/ccOIZ8iu.s:418    .text:00000000000001dc .L0 
     /tmp/ccOIZ8iu.s:419    .text:00000000000001e0 .L0 
     /tmp/ccOIZ8iu.s:422    .text:00000000000001e8 .L0 
     /tmp/ccOIZ8iu.s:423    .text:00000000000001e8 .L0 
     /tmp/ccOIZ8iu.s:425    .text:00000000000001ec .L0 
     /tmp/ccOIZ8iu.s:427    .text:00000000000001ec .L0 
     /tmp/ccOIZ8iu.s:428    .text:00000000000001ec .L0 
     /tmp/ccOIZ8iu.s:433    .text:00000000000001f8 .L0 
     /tmp/ccOIZ8iu.s:434    .text:00000000000001fc .L0 
     /tmp/ccOIZ8iu.s:436    .text:0000000000000200 .L0 
     /tmp/ccOIZ8iu.s:437    .text:0000000000000200 .L0 
     /tmp/ccOIZ8iu.s:439    .text:0000000000000204 .L0 
     /tmp/ccOIZ8iu.s:441    .text:0000000000000208 .L0 
     /tmp/ccOIZ8iu.s:447    .text:0000000000000208 _ZN9Semaphore6signalEv
     /tmp/ccOIZ8iu.s:450    .text:0000000000000208 .L0 
     /tmp/ccOIZ8iu.s:452    .text:0000000000000208 .L0 
     /tmp/ccOIZ8iu.s:453    .text:000000000000020c .L0 
     /tmp/ccOIZ8iu.s:456    .text:0000000000000214 .L0 
     /tmp/ccOIZ8iu.s:457    .text:0000000000000214 .L0 
     /tmp/ccOIZ8iu.s:459    .text:0000000000000218 .L0 
     /tmp/ccOIZ8iu.s:461    .text:0000000000000218 .L0 
     /tmp/ccOIZ8iu.s:462    .text:0000000000000218 .L0 
     /tmp/ccOIZ8iu.s:467    .text:0000000000000224 .L0 
     /tmp/ccOIZ8iu.s:468    .text:0000000000000228 .L0 
     /tmp/ccOIZ8iu.s:470    .text:000000000000022c .L0 
     /tmp/ccOIZ8iu.s:471    .text:000000000000022c .L0 
     /tmp/ccOIZ8iu.s:473    .text:0000000000000230 .L0 
     /tmp/ccOIZ8iu.s:475    .text:0000000000000234 .L0 
     /tmp/ccOIZ8iu.s:481    .text:0000000000000234 _ZN7Console4getcEv
     /tmp/ccOIZ8iu.s:484    .text:0000000000000234 .L0 
     /tmp/ccOIZ8iu.s:485    .text:0000000000000234 .L0 
     /tmp/ccOIZ8iu.s:486    .text:0000000000000238 .L0 
     /tmp/ccOIZ8iu.s:489    .text:0000000000000240 .L0 
     /tmp/ccOIZ8iu.s:490    .text:0000000000000240 .L0 
     /tmp/ccOIZ8iu.s:492    .text:0000000000000244 .L0 
     /tmp/ccOIZ8iu.s:494    .text:0000000000000244 .L0 
     /tmp/ccOIZ8iu.s:495    .text:0000000000000244 .L0 
     /tmp/ccOIZ8iu.s:498    .text:000000000000024c .L0 
     /tmp/ccOIZ8iu.s:499    .text:0000000000000250 .L0 
     /tmp/ccOIZ8iu.s:501    .text:0000000000000254 .L0 
     /tmp/ccOIZ8iu.s:502    .text:0000000000000254 .L0 
     /tmp/ccOIZ8iu.s:504    .text:0000000000000258 .L0 
     /tmp/ccOIZ8iu.s:506    .text:000000000000025c .L0 
     /tmp/ccOIZ8iu.s:512    .text:000000000000025c _ZN7Console4putcEc
     /tmp/ccOIZ8iu.s:515    .text:000000000000025c .L0 
     /tmp/ccOIZ8iu.s:517    .text:000000000000025c .L0 
     /tmp/ccOIZ8iu.s:518    .text:0000000000000260 .L0 
GAS LISTING /tmp/ccOIZ8iu.s 			page 24


     /tmp/ccOIZ8iu.s:521    .text:0000000000000268 .L0 
     /tmp/ccOIZ8iu.s:522    .text:0000000000000268 .L0 
     /tmp/ccOIZ8iu.s:524    .text:000000000000026c .L0 
     /tmp/ccOIZ8iu.s:526    .text:000000000000026c .L0 
     /tmp/ccOIZ8iu.s:527    .text:000000000000026c .L0 
     /tmp/ccOIZ8iu.s:530    .text:0000000000000274 .L0 
     /tmp/ccOIZ8iu.s:531    .text:0000000000000278 .L0 
     /tmp/ccOIZ8iu.s:533    .text:000000000000027c .L0 
     /tmp/ccOIZ8iu.s:534    .text:000000000000027c .L0 
     /tmp/ccOIZ8iu.s:536    .text:0000000000000280 .L0 
     /tmp/ccOIZ8iu.s:538    .text:0000000000000284 .L0 
     /tmp/ccOIZ8iu.s:544    .text:0000000000000284 _Znwm
     /tmp/ccOIZ8iu.s:547    .text:0000000000000284 .L0 
     /tmp/ccOIZ8iu.s:549    .text:0000000000000284 .L0 
     /tmp/ccOIZ8iu.s:550    .text:0000000000000288 .L0 
     /tmp/ccOIZ8iu.s:553    .text:0000000000000290 .L0 
     /tmp/ccOIZ8iu.s:554    .text:0000000000000290 .L0 
     /tmp/ccOIZ8iu.s:556    .text:0000000000000294 .L0 
     /tmp/ccOIZ8iu.s:558    .text:0000000000000294 .L0 
     /tmp/ccOIZ8iu.s:559    .text:0000000000000294 .L0 
     /tmp/ccOIZ8iu.s:562    .text:000000000000029c .L0 
     /tmp/ccOIZ8iu.s:563    .text:00000000000002a0 .L0 
     /tmp/ccOIZ8iu.s:565    .text:00000000000002a4 .L0 
     /tmp/ccOIZ8iu.s:566    .text:00000000000002a4 .L0 
     /tmp/ccOIZ8iu.s:568    .text:00000000000002a8 .L0 
     /tmp/ccOIZ8iu.s:570    .text:00000000000002ac .L0 
     /tmp/ccOIZ8iu.s:576    .text:00000000000002ac _Znam
     /tmp/ccOIZ8iu.s:579    .text:00000000000002ac .L0 
     /tmp/ccOIZ8iu.s:581    .text:00000000000002ac .L0 
     /tmp/ccOIZ8iu.s:582    .text:00000000000002b0 .L0 
     /tmp/ccOIZ8iu.s:585    .text:00000000000002b8 .L0 
     /tmp/ccOIZ8iu.s:586    .text:00000000000002b8 .L0 
     /tmp/ccOIZ8iu.s:588    .text:00000000000002bc .L0 
     /tmp/ccOIZ8iu.s:590    .text:00000000000002bc .L0 
     /tmp/ccOIZ8iu.s:591    .text:00000000000002bc .L0 
     /tmp/ccOIZ8iu.s:594    .text:00000000000002c4 .L0 
     /tmp/ccOIZ8iu.s:595    .text:00000000000002c8 .L0 
     /tmp/ccOIZ8iu.s:597    .text:00000000000002cc .L0 
     /tmp/ccOIZ8iu.s:598    .text:00000000000002cc .L0 
     /tmp/ccOIZ8iu.s:600    .text:00000000000002d0 .L0 
     /tmp/ccOIZ8iu.s:602    .text:00000000000002d4 .L0 
     /tmp/ccOIZ8iu.s:608    .text:00000000000002d4 _ZdlPv
     /tmp/ccOIZ8iu.s:611    .text:00000000000002d4 .L0 
     /tmp/ccOIZ8iu.s:613    .text:00000000000002d4 .L0 
     /tmp/ccOIZ8iu.s:614    .text:00000000000002d8 .L0 
     /tmp/ccOIZ8iu.s:617    .text:00000000000002e0 .L0 
     /tmp/ccOIZ8iu.s:618    .text:00000000000002e0 .L0 
     /tmp/ccOIZ8iu.s:620    .text:00000000000002e4 .L0 
     /tmp/ccOIZ8iu.s:622    .text:00000000000002e4 .L0 
     /tmp/ccOIZ8iu.s:623    .text:00000000000002e4 .L0 
     /tmp/ccOIZ8iu.s:626    .text:00000000000002ec .L0 
     /tmp/ccOIZ8iu.s:627    .text:00000000000002f0 .L0 
     /tmp/ccOIZ8iu.s:629    .text:00000000000002f4 .L0 
     /tmp/ccOIZ8iu.s:630    .text:00000000000002f4 .L0 
     /tmp/ccOIZ8iu.s:632    .text:00000000000002f8 .L0 
     /tmp/ccOIZ8iu.s:634    .text:00000000000002fc .L0 
     /tmp/ccOIZ8iu.s:640    .text:00000000000002fc _ZN6ThreadD2Ev
GAS LISTING /tmp/ccOIZ8iu.s 			page 25


     /tmp/ccOIZ8iu.s:643    .text:00000000000002fc .L0 
     /tmp/ccOIZ8iu.s:647    .text:00000000000002fc .L0 
     /tmp/ccOIZ8iu.s:648    .text:0000000000000300 .L0 
     /tmp/ccOIZ8iu.s:652    .text:000000000000030c .L0 
     /tmp/ccOIZ8iu.s:653    .text:000000000000030c .L0 
     /tmp/ccOIZ8iu.s:654    .text:000000000000030c .L0 
     /tmp/ccOIZ8iu.s:656    .text:0000000000000310 .L0 
     /tmp/ccOIZ8iu.s:660    .text:0000000000000314 .L0 
     /tmp/ccOIZ8iu.s:663    .text:0000000000000320 .L0 
     /tmp/ccOIZ8iu.s:664    .text:0000000000000320 .L0 
     /tmp/ccOIZ8iu.s:667    .text:0000000000000328 .L0 
     /tmp/ccOIZ8iu.s:668    .text:0000000000000328 .L0 
     /tmp/ccOIZ8iu.s:671    .text:000000000000032c .L0 
     /tmp/ccOIZ8iu.s:677    .text:0000000000000330 .L0 
     /tmp/ccOIZ8iu.s:678    .text:0000000000000330 .L0 
     /tmp/ccOIZ8iu.s:681    .text:0000000000000338 .L0 
     /tmp/ccOIZ8iu.s:687    .text:0000000000000344 .L0 
     /tmp/ccOIZ8iu.s:693    .text:0000000000000350 .L0 
     /tmp/ccOIZ8iu.s:694    .text:0000000000000354 .L0 
     /tmp/ccOIZ8iu.s:696    .text:0000000000000358 .L0 
     /tmp/ccOIZ8iu.s:697    .text:0000000000000358 .L0 
     /tmp/ccOIZ8iu.s:699    .text:000000000000035c .L0 
     /tmp/ccOIZ8iu.s:701    .text:0000000000000360 .L0 
     /tmp/ccOIZ8iu.s:703    .text:0000000000000364 .L0 
     /tmp/ccOIZ8iu.s:640    .text:00000000000002fc _ZN6ThreadD1Ev
     /tmp/ccOIZ8iu.s:718    .text:0000000000000364 _ZN6ThreadD0Ev
     /tmp/ccOIZ8iu.s:721    .text:0000000000000364 .L0 
     /tmp/ccOIZ8iu.s:723    .text:0000000000000364 .L0 
     /tmp/ccOIZ8iu.s:724    .text:0000000000000368 .L0 
     /tmp/ccOIZ8iu.s:728    .text:0000000000000374 .L0 
     /tmp/ccOIZ8iu.s:729    .text:0000000000000374 .L0 
     /tmp/ccOIZ8iu.s:730    .text:0000000000000374 .L0 
     /tmp/ccOIZ8iu.s:732    .text:0000000000000378 .L0 
     /tmp/ccOIZ8iu.s:735    .text:000000000000037c .L0 
     /tmp/ccOIZ8iu.s:741    .text:0000000000000394 .L0 
     /tmp/ccOIZ8iu.s:743    .text:0000000000000398 .L0 
     /tmp/ccOIZ8iu.s:744    .text:0000000000000398 .L0 
     /tmp/ccOIZ8iu.s:746    .text:000000000000039c .L0 
     /tmp/ccOIZ8iu.s:749    .text:00000000000003a0 .L0 
     /tmp/ccOIZ8iu.s:751    .text:00000000000003a4 .L0 
     /tmp/ccOIZ8iu.s:757    .text:00000000000003a4 _ZN9SemaphoreD0Ev
     /tmp/ccOIZ8iu.s:760    .text:00000000000003a4 .L0 
     /tmp/ccOIZ8iu.s:762    .text:00000000000003a4 .L0 
     /tmp/ccOIZ8iu.s:763    .text:00000000000003a8 .L0 
     /tmp/ccOIZ8iu.s:767    .text:00000000000003b4 .L0 
     /tmp/ccOIZ8iu.s:768    .text:00000000000003b4 .L0 
     /tmp/ccOIZ8iu.s:769    .text:00000000000003b4 .L0 
     /tmp/ccOIZ8iu.s:771    .text:00000000000003b8 .L0 
     /tmp/ccOIZ8iu.s:774    .text:00000000000003bc .L0 
     /tmp/ccOIZ8iu.s:780    .text:00000000000003d4 .L0 
     /tmp/ccOIZ8iu.s:782    .text:00000000000003d8 .L0 
     /tmp/ccOIZ8iu.s:783    .text:00000000000003d8 .L0 
     /tmp/ccOIZ8iu.s:785    .text:00000000000003dc .L0 
     /tmp/ccOIZ8iu.s:788    .text:00000000000003e0 .L0 
     /tmp/ccOIZ8iu.s:790    .text:00000000000003e4 .L0 
     /tmp/ccOIZ8iu.s:796    .text:00000000000003e4 _ZdaPv
     /tmp/ccOIZ8iu.s:799    .text:00000000000003e4 .L0 
GAS LISTING /tmp/ccOIZ8iu.s 			page 26


     /tmp/ccOIZ8iu.s:801    .text:00000000000003e4 .L0 
     /tmp/ccOIZ8iu.s:802    .text:00000000000003e8 .L0 
     /tmp/ccOIZ8iu.s:805    .text:00000000000003f0 .L0 
     /tmp/ccOIZ8iu.s:806    .text:00000000000003f0 .L0 
     /tmp/ccOIZ8iu.s:808    .text:00000000000003f4 .L0 
     /tmp/ccOIZ8iu.s:810    .text:00000000000003f4 .L0 
     /tmp/ccOIZ8iu.s:811    .text:00000000000003f4 .L0 
     /tmp/ccOIZ8iu.s:814    .text:00000000000003fc .L0 
     /tmp/ccOIZ8iu.s:815    .text:0000000000000400 .L0 
     /tmp/ccOIZ8iu.s:817    .text:0000000000000404 .L0 
     /tmp/ccOIZ8iu.s:818    .text:0000000000000404 .L0 
     /tmp/ccOIZ8iu.s:820    .text:0000000000000408 .L0 
     /tmp/ccOIZ8iu.s:822    .text:000000000000040c .L0 
     /tmp/ccOIZ8iu.s:32     .text._ZN6Thread3runEv:0000000000000018 .L0 
     /tmp/ccOIZ8iu.s:852    .text:000000000000040c .L0 
     /tmp/ccOIZ8iu.s:91     .text:000000000000003c .L0 
     /tmp/ccOIZ8iu.s:137    .text:0000000000000070 .L0 
     /tmp/ccOIZ8iu.s:171    .text:0000000000000098 .L0 
     /tmp/ccOIZ8iu.s:178    .text:00000000000000a8 .L0 
     /tmp/ccOIZ8iu.s:212    .text:00000000000000d0 .L0 
     /tmp/ccOIZ8iu.s:387    .text:00000000000001b4 .L0 
     /tmp/ccOIZ8iu.s:660    .text:0000000000000314 .L0 
     /tmp/ccOIZ8iu.s:690    .text:0000000000000350 .L37
     /tmp/ccOIZ8iu.s:2479   .debug_abbrev:0000000000000000 .Ldebug_abbrev0
     /tmp/ccOIZ8iu.s:4208   .debug_str:0000000000000795 .LASF150
     /tmp/ccOIZ8iu.s:4178   .debug_str:00000000000006ce .LASF151
     /tmp/ccOIZ8iu.s:4018   .debug_str:0000000000000240 .LASF152
     /tmp/ccOIZ8iu.s:3928   .debug_ranges:0000000000000000 .Ldebug_ranges0
     /tmp/ccOIZ8iu.s:3936   .debug_line:0000000000000000 .Ldebug_line0
     /tmp/ccOIZ8iu.s:4114   .debug_str:0000000000000517 .LASF0
     /tmp/ccOIZ8iu.s:4130   .debug_str:0000000000000573 .LASF1
     /tmp/ccOIZ8iu.s:4090   .debug_str:0000000000000485 .LASF2
     /tmp/ccOIZ8iu.s:4058   .debug_str:00000000000003cc .LASF4
     /tmp/ccOIZ8iu.s:4190   .debug_str:000000000000072c .LASF3
     /tmp/ccOIZ8iu.s:3958   .debug_str:00000000000000b1 .LASF5
     /tmp/ccOIZ8iu.s:4000   .debug_str:00000000000001d5 .LASF6
     /tmp/ccOIZ8iu.s:4136   .debug_str:00000000000005a7 .LASF7
     /tmp/ccOIZ8iu.s:4112   .debug_str:0000000000000504 .LASF8
     /tmp/ccOIZ8iu.s:4224   .debug_str:00000000000008ca .LASF9
     /tmp/ccOIZ8iu.s:4040   .debug_str:0000000000000318 .LASF10
     /tmp/ccOIZ8iu.s:4150   .debug_str:000000000000060c .LASF11
     /tmp/ccOIZ8iu.s:4214   .debug_str:000000000000087c .LASF12
     /tmp/ccOIZ8iu.s:3964   .debug_str:00000000000000d7 .LASF13
     /tmp/ccOIZ8iu.s:3942   .debug_str:0000000000000011 .LASF14
     /tmp/ccOIZ8iu.s:3976   .debug_str:0000000000000132 .LASF15
     /tmp/ccOIZ8iu.s:4184   .debug_str:0000000000000709 .LASF16
     /tmp/ccOIZ8iu.s:3990   .debug_str:0000000000000191 .LASF17
     /tmp/ccOIZ8iu.s:4024   .debug_str:000000000000027b .LASF27
     /tmp/ccOIZ8iu.s:4250   .debug_str:000000000000097b .LASF18
     /tmp/ccOIZ8iu.s:4240   .debug_str:0000000000000936 .LASF19
     /tmp/ccOIZ8iu.s:4202   .debug_str:000000000000076b .LASF20
     /tmp/ccOIZ8iu.s:4086   .debug_str:000000000000046e .LASF26
     /tmp/ccOIZ8iu.s:3996   .debug_str:00000000000001c1 .LASF21
     /tmp/ccOIZ8iu.s:4014   .debug_str:000000000000021f .LASF37
     /tmp/ccOIZ8iu.s:4146   .debug_str:00000000000005db .LASF39
     /tmp/ccOIZ8iu.s:4108   .debug_str:00000000000004e6 .LASF22
     /tmp/ccOIZ8iu.s:4032   .debug_str:00000000000002b8 .LASF24
GAS LISTING /tmp/ccOIZ8iu.s 			page 27


     /tmp/ccOIZ8iu.s:4084   .debug_str:0000000000000464 .LASF23
     /tmp/ccOIZ8iu.s:3978   .debug_str:000000000000013e .LASF25
     /tmp/ccOIZ8iu.s:4210   .debug_str:0000000000000859 .LASF72
     /tmp/ccOIZ8iu.s:3956   .debug_str:000000000000008d .LASF74
     /tmp/ccOIZ8iu.s:3946   .debug_str:0000000000000037 .LASF28
     /tmp/ccOIZ8iu.s:4006   .debug_str:00000000000001ff .LASF31
     /tmp/ccOIZ8iu.s:4164   .debug_str:0000000000000662 .LASF33
     /tmp/ccOIZ8iu.s:4138   .debug_str:00000000000005ba .LASF29
     /tmp/ccOIZ8iu.s:4038   .debug_str:0000000000000301 .LASF30
     /tmp/ccOIZ8iu.s:4092   .debug_str:0000000000000493 .LASF32
     /tmp/ccOIZ8iu.s:4052   .debug_str:000000000000037b .LASF34
     /tmp/ccOIZ8iu.s:4070   .debug_str:0000000000000407 .LASF35
     /tmp/ccOIZ8iu.s:3948   .debug_str:000000000000003f .LASF36
     /tmp/ccOIZ8iu.s:4168   .debug_str:000000000000067a .LASF153
     /tmp/ccOIZ8iu.s:4180   .debug_str:00000000000006e2 .LASF101
     /tmp/ccOIZ8iu.s:4100   .debug_str:00000000000004b7 .LASF102
     /tmp/ccOIZ8iu.s:4192   .debug_str:000000000000073e .LASF38
     /tmp/ccOIZ8iu.s:4154   .debug_str:0000000000000633 .LASF40
     /tmp/ccOIZ8iu.s:4124   .debug_str:0000000000000555 .LASF154
     /tmp/ccOIZ8iu.s:4064   .debug_str:00000000000003ef .LASF41
     /tmp/ccOIZ8iu.s:4118   .debug_str:000000000000052d .LASF42
     /tmp/ccOIZ8iu.s:4068   .debug_str:00000000000003ff .LASF43
     /tmp/ccOIZ8iu.s:4062   .debug_str:00000000000003e6 .LASF44
     /tmp/ccOIZ8iu.s:4088   .debug_str:000000000000047e .LASF45
     /tmp/ccOIZ8iu.s:3940   .debug_str:0000000000000009 .LASF46
     /tmp/ccOIZ8iu.s:4074   .debug_str:000000000000041e .LASF47
     /tmp/ccOIZ8iu.s:4048   .debug_str:0000000000000352 .LASF49
     /tmp/ccOIZ8iu.s:4234   .debug_str:000000000000090f .LASF76
     /tmp/ccOIZ8iu.s:4054   .debug_str:0000000000000392 .LASF78
     /tmp/ccOIZ8iu.s:4116   .debug_str:0000000000000524 .LASF48
     /tmp/ccOIZ8iu.s:4020   .debug_str:0000000000000263 .LASF50
     /tmp/ccOIZ8iu.s:4022   .debug_str:0000000000000276 .LASF51
     /tmp/ccOIZ8iu.s:3988   .debug_str:0000000000000189 .LASF52
     /tmp/ccOIZ8iu.s:3984   .debug_str:000000000000017e .LASF53
     /tmp/ccOIZ8iu.s:4098   .debug_str:00000000000004b2 .LASF54
     /tmp/ccOIZ8iu.s:3968   .debug_str:00000000000000ec .LASF55
     /tmp/ccOIZ8iu.s:4036   .debug_str:00000000000002eb .LASF56
     /tmp/ccOIZ8iu.s:4094   .debug_str:000000000000049f .LASF57
     /tmp/ccOIZ8iu.s:4030   .debug_str:000000000000029e .LASF58
     /tmp/ccOIZ8iu.s:4220   .debug_str:00000000000008b3 .LASF59
     /tmp/ccOIZ8iu.s:4152   .debug_str:000000000000061b .LASF60
     /tmp/ccOIZ8iu.s:4072   .debug_str:0000000000000414 .LASF61
     /tmp/ccOIZ8iu.s:3954   .debug_str:0000000000000077 .LASF62
     /tmp/ccOIZ8iu.s:4096   .debug_str:00000000000004a9 .LASF63
     /tmp/ccOIZ8iu.s:3974   .debug_str:000000000000011b .LASF64
     /tmp/ccOIZ8iu.s:4106   .debug_str:00000000000004de .LASF65
     /tmp/ccOIZ8iu.s:3944   .debug_str:0000000000000021 .LASF66
     /tmp/ccOIZ8iu.s:4140   .debug_str:00000000000005c5 .LASF67
     /tmp/ccOIZ8iu.s:4170   .debug_str:000000000000067f .LASF68
     /tmp/ccOIZ8iu.s:3938   .debug_str:0000000000000000 .LASF69
     /tmp/ccOIZ8iu.s:4012   .debug_str:0000000000000219 .LASF70
     /tmp/ccOIZ8iu.s:4148   .debug_str:0000000000000604 .LASF71
     /tmp/ccOIZ8iu.s:4008   .debug_str:0000000000000204 .LASF73
     /tmp/ccOIZ8iu.s:3970   .debug_str:00000000000000f6 .LASF75
     /tmp/ccOIZ8iu.s:4102   .debug_str:00000000000004c7 .LASF77
     /tmp/ccOIZ8iu.s:4132   .debug_str:0000000000000586 .LASF79
     /tmp/ccOIZ8iu.s:4142   .debug_str:00000000000005cf .LASF80
GAS LISTING /tmp/ccOIZ8iu.s 			page 28


     /tmp/ccOIZ8iu.s:4078   .debug_str:000000000000043c .LASF81
     /tmp/ccOIZ8iu.s:4244   .debug_str:0000000000000949 .LASF89
     /tmp/ccOIZ8iu.s:4010   .debug_str:0000000000000209 .LASF91
     /tmp/ccOIZ8iu.s:4216   .debug_str:000000000000088b .LASF82
     /tmp/ccOIZ8iu.s:4176   .debug_str:00000000000006c3 .LASF94
     /tmp/ccOIZ8iu.s:3972   .debug_str:0000000000000109 .LASF96
     /tmp/ccOIZ8iu.s:3966   .debug_str:00000000000000e7 .LASF83
     /tmp/ccOIZ8iu.s:4172   .debug_str:0000000000000697 .LASF84
     /tmp/ccOIZ8iu.s:4144   .debug_str:00000000000005d4 .LASF85
     /tmp/ccOIZ8iu.s:4174   .debug_str:00000000000006ac .LASF86
     /tmp/ccOIZ8iu.s:4248   .debug_str:0000000000000972 .LASF87
     /tmp/ccOIZ8iu.s:4226   .debug_str:00000000000008da .LASF155
     /tmp/ccOIZ8iu.s:4044   .debug_str:0000000000000339 .LASF88
     /tmp/ccOIZ8iu.s:4104   .debug_str:00000000000004cc .LASF90
     /tmp/ccOIZ8iu.s:4082   .debug_str:0000000000000457 .LASF92
     /tmp/ccOIZ8iu.s:4212   .debug_str:0000000000000865 .LASF93
     /tmp/ccOIZ8iu.s:3952   .debug_str:000000000000006f .LASF95
     /tmp/ccOIZ8iu.s:4122   .debug_str:0000000000000546 .LASF97
     /tmp/ccOIZ8iu.s:4128   .debug_str:000000000000056d .LASF98
     /tmp/ccOIZ8iu.s:4110   .debug_str:00000000000004f1 .LASF99
     /tmp/ccOIZ8iu.s:4046   .debug_str:0000000000000340 .LASF100
     /tmp/ccOIZ8iu.s:3962   .debug_str:00000000000000c1 .LASF103
     /tmp/ccOIZ8iu.s:4254   .debug_str:0000000000000995 .LASF104
     /tmp/ccOIZ8iu.s:4042   .debug_str:0000000000000326 .LASF105
     /tmp/ccOIZ8iu.s:4198   .debug_str:0000000000000759 .LASF106
     /tmp/ccOIZ8iu.s:4204   .debug_str:0000000000000770 .LASF107
     /tmp/ccOIZ8iu.s:4222   .debug_str:00000000000008bb .LASF108
     /tmp/ccOIZ8iu.s:4080   .debug_str:0000000000000446 .LASF156
     /tmp/ccOIZ8iu.s:4060   .debug_str:00000000000003d3 .LASF109
     /tmp/ccOIZ8iu.s:4188   .debug_str:0000000000000725 .LASF110
     /tmp/ccOIZ8iu.s:797    .text:00000000000003e4 .LFB39
     /tmp/ccOIZ8iu.s:823    .text:000000000000040c .LFE39
     /tmp/ccOIZ8iu.s:3630   .debug_loc:0000000000000000 .LLST18
     /tmp/ccOIZ8iu.s:812    .text:00000000000003fc .LVL52
     /tmp/ccOIZ8iu.s:4194   .debug_str:0000000000000743 .LASF111
     /tmp/ccOIZ8iu.s:4256   .debug_str:000000000000099b .LASF112
     /tmp/ccOIZ8iu.s:609    .text:00000000000002d4 .LFB38
     /tmp/ccOIZ8iu.s:635    .text:00000000000002fc .LFE38
     /tmp/ccOIZ8iu.s:3644   .debug_loc:0000000000000039 .LLST13
     /tmp/ccOIZ8iu.s:624    .text:00000000000002ec .LVL35
     /tmp/ccOIZ8iu.s:4034   .debug_str:00000000000002db .LASF113
     /tmp/ccOIZ8iu.s:4196   .debug_str:0000000000000753 .LASF114
     /tmp/ccOIZ8iu.s:577    .text:00000000000002ac .LFB37
     /tmp/ccOIZ8iu.s:603    .text:00000000000002d4 .LFE37
     /tmp/ccOIZ8iu.s:3658   .debug_loc:0000000000000072 .LLST12
     /tmp/ccOIZ8iu.s:592    .text:00000000000002c4 .LVL33
     /tmp/ccOIZ8iu.s:4236   .debug_str:000000000000091d .LASF115
     /tmp/ccOIZ8iu.s:4186   .debug_str:000000000000071f .LASF116
     /tmp/ccOIZ8iu.s:545    .text:0000000000000284 .LFB36
     /tmp/ccOIZ8iu.s:571    .text:00000000000002ac .LFE36
     /tmp/ccOIZ8iu.s:3672   .debug_loc:00000000000000ab .LLST11
     /tmp/ccOIZ8iu.s:560    .text:000000000000029c .LVL31
     /tmp/ccOIZ8iu.s:513    .text:000000000000025c .LFB35
     /tmp/ccOIZ8iu.s:539    .text:0000000000000284 .LFE35
     /tmp/ccOIZ8iu.s:3686   .debug_loc:00000000000000e4 .LLST10
     /tmp/ccOIZ8iu.s:528    .text:0000000000000274 .LVL29
     /tmp/ccOIZ8iu.s:482    .text:0000000000000234 .LFB34
GAS LISTING /tmp/ccOIZ8iu.s 			page 29


     /tmp/ccOIZ8iu.s:507    .text:000000000000025c .LFE34
     /tmp/ccOIZ8iu.s:496    .text:000000000000024c .LVL27
     /tmp/ccOIZ8iu.s:448    .text:0000000000000208 .LFB33
     /tmp/ccOIZ8iu.s:476    .text:0000000000000234 .LFE33
     /tmp/ccOIZ8iu.s:4160   .debug_str:0000000000000658 .LASF117
     /tmp/ccOIZ8iu.s:3700   .debug_loc:000000000000011d .LLST9
     /tmp/ccOIZ8iu.s:465    .text:0000000000000224 .LVL26
     /tmp/ccOIZ8iu.s:414    .text:00000000000001dc .LFB32
     /tmp/ccOIZ8iu.s:442    .text:0000000000000208 .LFE32
     /tmp/ccOIZ8iu.s:3714   .debug_loc:0000000000000156 .LLST8
     /tmp/ccOIZ8iu.s:431    .text:00000000000001f8 .LVL23
     /tmp/ccOIZ8iu.s:3950   .debug_str:0000000000000065 .LASF118
     /tmp/ccOIZ8iu.s:4028   .debug_str:000000000000028c .LASF119
     /tmp/ccOIZ8iu.s:758    .text:00000000000003a4 .LFB31
     /tmp/ccOIZ8iu.s:791    .text:00000000000003e4 .LFE31
     /tmp/ccOIZ8iu.s:3728   .debug_loc:000000000000018f .LLST17
     /tmp/ccOIZ8iu.s:775    .text:00000000000003c4 .LVL48
     /tmp/ccOIZ8iu.s:778    .text:00000000000003d0 .LVL49
     /tmp/ccOIZ8iu.s:4056   .debug_str:00000000000003ba .LASF120
     /tmp/ccOIZ8iu.s:75     .text:000000000000002c .LFB29
     /tmp/ccOIZ8iu.s:110    .text:0000000000000064 .LFE29
     /tmp/ccOIZ8iu.s:3746   .debug_loc:00000000000001db .LLST2
     /tmp/ccOIZ8iu.s:98     .text:0000000000000054 .LVL6
     /tmp/ccOIZ8iu.s:4162   .debug_str:000000000000065d .LASF125
     /tmp/ccOIZ8iu.s:4230   .debug_str:00000000000008f4 .LASF121
     /tmp/ccOIZ8iu.s:373    .text:00000000000001a4 .LFB26
     /tmp/ccOIZ8iu.s:406    .text:00000000000001dc .LFE26
     /tmp/ccOIZ8iu.s:3760   .debug_loc:0000000000000214 .LLST6
     /tmp/ccOIZ8iu.s:3780   .debug_loc:0000000000000262 .LLST7
     /tmp/ccOIZ8iu.s:394    .text:00000000000001cc .LVL20
     /tmp/ccOIZ8iu.s:37     .text:0000000000000000 .LFB24
     /tmp/ccOIZ8iu.s:69     .text:000000000000002c .LFE24
     /tmp/ccOIZ8iu.s:3794   .debug_loc:000000000000029b .LLST0
     /tmp/ccOIZ8iu.s:3808   .debug_loc:00000000000002d4 .LLST1
     /tmp/ccOIZ8iu.s:58     .text:000000000000001c .LVL3
     /tmp/ccOIZ8iu.s:341    .text:000000000000017c .LFB23
     /tmp/ccOIZ8iu.s:367    .text:00000000000001a4 .LFE23
     /tmp/ccOIZ8iu.s:3986   .debug_str:0000000000000184 .LASF122
     /tmp/ccOIZ8iu.s:3822   .debug_loc:000000000000030d .LLST5
     /tmp/ccOIZ8iu.s:356    .text:0000000000000194 .LVL17
     /tmp/ccOIZ8iu.s:310    .text:0000000000000154 .LFB22
     /tmp/ccOIZ8iu.s:335    .text:000000000000017c .LFE22
     /tmp/ccOIZ8iu.s:324    .text:000000000000016c .LVL15
     /tmp/ccOIZ8iu.s:276    .text:0000000000000128 .LFB21
     /tmp/ccOIZ8iu.s:304    .text:0000000000000154 .LFE21
     /tmp/ccOIZ8iu.s:3836   .debug_loc:0000000000000346 .LLST4
     /tmp/ccOIZ8iu.s:293    .text:0000000000000144 .LVL14
     /tmp/ccOIZ8iu.s:240    .text:00000000000000f4 .LFB20
     /tmp/ccOIZ8iu.s:270    .text:0000000000000128 .LFE20
     /tmp/ccOIZ8iu.s:3850   .debug_loc:000000000000037f .LLST3
     /tmp/ccOIZ8iu.s:259    .text:0000000000000118 .LVL11
     /tmp/ccOIZ8iu.s:3992   .debug_str:00000000000001a7 .LASF123
     /tmp/ccOIZ8iu.s:719    .text:0000000000000364 .LFB19
     /tmp/ccOIZ8iu.s:752    .text:00000000000003a4 .LFE19
     /tmp/ccOIZ8iu.s:3870   .debug_loc:00000000000003cd .LLST16
     /tmp/ccOIZ8iu.s:736    .text:0000000000000384 .LVL44
     /tmp/ccOIZ8iu.s:739    .text:0000000000000390 .LVL45
GAS LISTING /tmp/ccOIZ8iu.s 			page 30


     /tmp/ccOIZ8iu.s:4206   .debug_str:0000000000000786 .LASF124
     /tmp/ccOIZ8iu.s:641    .text:00000000000002fc .LFB17
     /tmp/ccOIZ8iu.s:704    .text:0000000000000364 .LFE17
     /tmp/ccOIZ8iu.s:3888   .debug_loc:0000000000000419 .LLST14
     /tmp/ccOIZ8iu.s:673    .text:0000000000000330 .LBB11
     /tmp/ccOIZ8iu.s:685    .text:0000000000000344 .LBE11
     /tmp/ccOIZ8iu.s:3906   .debug_loc:0000000000000465 .LLST15
     /tmp/ccOIZ8iu.s:679    .text:0000000000000338 .LVL40
     /tmp/ccOIZ8iu.s:683    .text:0000000000000344 .LVL41
     /tmp/ccOIZ8iu.s:665    .text:0000000000000328 .LVL37
     /tmp/ccOIZ8iu.s:689    .text:0000000000000350 .LVL42
     /tmp/ccOIZ8iu.s:4016   .debug_str:0000000000000229 .LASF126
     /tmp/ccOIZ8iu.s:200    .text:00000000000000c4 .LFB14
     /tmp/ccOIZ8iu.s:232    .text:00000000000000f4 .LFE14
     /tmp/ccOIZ8iu.s:3998   .debug_str:00000000000001c6 .LASF127
     /tmp/ccOIZ8iu.s:159    .text:000000000000008c .LFB11
     /tmp/ccOIZ8iu.s:192    .text:00000000000000c4 .LFE11
     /tmp/ccOIZ8iu.s:4158   .debug_str:000000000000064d .LASF157
     /tmp/ccOIZ8iu.s:4050   .debug_str:000000000000036b .LASF158
     /tmp/ccOIZ8iu.s:126    .text:0000000000000064 .LFB9
     /tmp/ccOIZ8iu.s:153    .text:000000000000008c .LFE9
     /tmp/ccOIZ8iu.s:11     .text._ZN6Thread3runEv:0000000000000000 .LFB5
     /tmp/ccOIZ8iu.s:30     .text._ZN6Thread3runEv:0000000000000018 .LFE5
     /tmp/ccOIZ8iu.s:4238   .debug_str:000000000000092a .LASF159
     /tmp/ccOIZ8iu.s:4242   .debug_str:000000000000093b .LASF128
     /tmp/ccOIZ8iu.s:4156   .debug_str:0000000000000644 .LASF130
     /tmp/ccOIZ8iu.s:4134   .debug_str:0000000000000599 .LASF129
     /tmp/ccOIZ8iu.s:4228   .debug_str:00000000000008ea .LASF131
     /tmp/ccOIZ8iu.s:4026   .debug_str:0000000000000283 .LASF132
     /tmp/ccOIZ8iu.s:3960   .debug_str:00000000000000b8 .LASF133
     /tmp/ccOIZ8iu.s:4218   .debug_str:000000000000089d .LASF134
     /tmp/ccOIZ8iu.s:3994   .debug_str:00000000000001b6 .LASF135
     /tmp/ccOIZ8iu.s:4120   .debug_str:0000000000000533 .LASF136
     /tmp/ccOIZ8iu.s:3980   .debug_str:0000000000000160 .LASF137
     /tmp/ccOIZ8iu.s:4246   .debug_str:000000000000095e .LASF138
     /tmp/ccOIZ8iu.s:4200   .debug_str:0000000000000761 .LASF139
     /tmp/ccOIZ8iu.s:3982   .debug_str:0000000000000169 .LASF140
     /tmp/ccOIZ8iu.s:4232   .debug_str:0000000000000906 .LASF141
     /tmp/ccOIZ8iu.s:4126   .debug_str:000000000000055d .LASF142
     /tmp/ccOIZ8iu.s:4066   .debug_str:00000000000003f4 .LASF143
     /tmp/ccOIZ8iu.s:4002   .debug_str:00000000000001dc .LASF144
     /tmp/ccOIZ8iu.s:4076   .debug_str:000000000000042c .LASF145
     /tmp/ccOIZ8iu.s:4252   .debug_str:0000000000000980 .LASF146
     /tmp/ccOIZ8iu.s:4166   .debug_str:000000000000066e .LASF147
     /tmp/ccOIZ8iu.s:4182   .debug_str:00000000000006e8 .LASF148
     /tmp/ccOIZ8iu.s:4004   .debug_str:00000000000001f1 .LASF149
     /tmp/ccOIZ8iu.s:800    .text:00000000000003e4 .LVL51
     /tmp/ccOIZ8iu.s:612    .text:00000000000002d4 .LVL34
     /tmp/ccOIZ8iu.s:580    .text:00000000000002ac .LVL32
     /tmp/ccOIZ8iu.s:548    .text:0000000000000284 .LVL30
     /tmp/ccOIZ8iu.s:516    .text:000000000000025c .LVL28
     /tmp/ccOIZ8iu.s:451    .text:0000000000000208 .LVL24
     /tmp/ccOIZ8iu.s:463    .text:000000000000021c .LVL25
     /tmp/ccOIZ8iu.s:417    .text:00000000000001dc .LVL21
     /tmp/ccOIZ8iu.s:429    .text:00000000000001f0 .LVL22
     /tmp/ccOIZ8iu.s:761    .text:00000000000003a4 .LVL47
     /tmp/ccOIZ8iu.s:786    .text:00000000000003dc .LVL50
GAS LISTING /tmp/ccOIZ8iu.s 			page 31


     /tmp/ccOIZ8iu.s:80     .text:000000000000002c .LVL4
     /tmp/ccOIZ8iu.s:96     .text:000000000000004c .LVL5
     /tmp/ccOIZ8iu.s:376    .text:00000000000001a4 .LVL18
     /tmp/ccOIZ8iu.s:392    .text:00000000000001c4 .LVL19
     /tmp/ccOIZ8iu.s:41     .text:0000000000000000 .LVL1
     /tmp/ccOIZ8iu.s:51     .text:0000000000000010 .LVL2
     /tmp/ccOIZ8iu.s:344    .text:000000000000017c .LVL16
     /tmp/ccOIZ8iu.s:279    .text:0000000000000128 .LVL12
     /tmp/ccOIZ8iu.s:291    .text:000000000000013c .LVL13
     /tmp/ccOIZ8iu.s:243    .text:00000000000000f4 .LVL9
     /tmp/ccOIZ8iu.s:257    .text:0000000000000110 .LVL10
     /tmp/ccOIZ8iu.s:722    .text:0000000000000364 .LVL43
     /tmp/ccOIZ8iu.s:747    .text:000000000000039c .LVL46
     /tmp/ccOIZ8iu.s:646    .text:00000000000002fc .LVL36
     /tmp/ccOIZ8iu.s:669    .text:000000000000032c .LVL38
     /tmp/ccOIZ8iu.s:672    .text:0000000000000330 .LVL39
     /tmp/ccOIZ8iu.s:853    .debug_info:0000000000000000 .Ldebug_info0
     /tmp/ccOIZ8iu.s:5      .text:0000000000000000 .Ltext0
     /tmp/ccOIZ8iu.s:847    .text:000000000000040c .Letext0
     /tmp/ccOIZ8iu.s:113    .gcc_except_table:0000000000000000 .LLSDA29
     /tmp/ccOIZ8iu.s:706    .gcc_except_table:0000000000000004 .LLSDA17

UNDEFINED SYMBOLS
_Z9sem_closeP5MySem
__gxx_personality_v0
supervisorTrap
_Z13thread_createPP3TCBPFvPvES2_
_Z11thread_joinP3TCB
_Z15thread_dispatchv
_Z10time_sleepm
_Z8sem_openPP5MySemj
_Z8sem_waitP5MySem
_Z10sem_signalP5MySem
_Z4getcv
_Z4putcc
_Z9mem_allocm
_Z8mem_freePv
_ZN15MemoryAllocator11getInstanceEv
_ZN15MemoryAllocator9_mem_freeEPv
